
test.elf: formato do arquivo elf32-littleriscv


Desmontagem da seção .text:

40000000 <_entry>:
40000000:	00002697          	auipc	a3,0x2
40000004:	89068693          	addi	a3,a3,-1904 # 40001890 <_edata>
40000008:	00002617          	auipc	a2,0x2
4000000c:	89460613          	addi	a2,a2,-1900 # 4000189c <_bss_end>
40000010:	00002197          	auipc	gp,0x2
40000014:	07c18193          	addi	gp,gp,124 # 4000208c <_gp>
40000018:	10000117          	auipc	sp,0x10000
4000001c:	fe410113          	addi	sp,sp,-28 # 4ffffffc <_stack>
40000020:	00002217          	auipc	tp,0x2
40000024:	8bb20213          	addi	tp,tp,-1861 # 400018db <_bss_end+0x3f>
40000028:	fc027213          	andi	tp,tp,-64

4000002c <BSS_CLEAR>:
4000002c:	0006a023          	sw	zero,0(a3)
40000030:	00468693          	addi	a3,a3,4
40000034:	fec6cce3          	blt	a3,a2,4000002c <BSS_CLEAR>
40000038:	00000d97          	auipc	s11,0x0
4000003c:	0c8d8d93          	addi	s11,s11,200 # 40000100 <_isr>
40000040:	f0000d37          	lui	s10,0xf0000
40000044:	01bd2023          	sw	s11,0(s10) # f0000000 <_stack+0xa0000004>
40000048:	1c1000ef          	jal	ra,40000a08 <irq_enable>
4000004c:	4a0010ef          	jal	ra,400014ec <main_test>
40000050:	e0000d37          	lui	s10,0xe0000
40000054:	000d2023          	sw	zero,0(s10) # e0000000 <_stack+0x90000004>

40000058 <L1>:
40000058:	00000063          	beq	zero,zero,40000058 <L1>
	...

40000100 <_isr>:
40000100:	00000013          	addi	zero,zero,0
40000104:	fbc10113          	addi	sp,sp,-68
40000108:	00112023          	sw	ra,0(sp)
4000010c:	00512223          	sw	t0,4(sp)
40000110:	00612423          	sw	t1,8(sp)
40000114:	00712623          	sw	t2,12(sp)
40000118:	00a12823          	sw	a0,16(sp)
4000011c:	00b12a23          	sw	a1,20(sp)
40000120:	00c12c23          	sw	a2,24(sp)
40000124:	00d12e23          	sw	a3,28(sp)
40000128:	02e12023          	sw	a4,32(sp)
4000012c:	02f12223          	sw	a5,36(sp)
40000130:	03012423          	sw	a6,40(sp)
40000134:	03112623          	sw	a7,44(sp)
40000138:	03c12823          	sw	t3,48(sp)
4000013c:	03d12a23          	sw	t4,52(sp)
40000140:	03e12c23          	sw	t5,56(sp)
40000144:	03f12e23          	sw	t6,60(sp)
40000148:	f0000d37          	lui	s10,0xf0000
4000014c:	040d0d13          	addi	s10,s10,64 # f0000040 <_stack+0xa0000044>
40000150:	000d2d03          	lw	s10,0(s10)
40000154:	ffcd0d13          	addi	s10,s10,-4
40000158:	05a12023          	sw	s10,64(sp)
4000015c:	f00005b7          	lui	a1,0xf0000
40000160:	0105a503          	lw	a0,16(a1) # f0000010 <_stack+0xa0000014>
40000164:	0205a603          	lw	a2,32(a1)
40000168:	00c57533          	and	a0,a0,a2
4000016c:	00010593          	addi	a1,sp,0
40000170:	06050263          	beq	a0,zero,400001d4 <_exception>
40000174:	0c9000ef          	jal	ra,40000a3c <irq_handler>

40000178 <_restore>:
40000178:	01012503          	lw	a0,16(sp)
4000017c:	01412583          	lw	a1,20(sp)

40000180 <_restore_exception>:
40000180:	00012083          	lw	ra,0(sp)
40000184:	00412283          	lw	t0,4(sp)
40000188:	00812303          	lw	t1,8(sp)
4000018c:	00c12383          	lw	t2,12(sp)
40000190:	01812603          	lw	a2,24(sp)
40000194:	01c12683          	lw	a3,28(sp)
40000198:	02012703          	lw	a4,32(sp)
4000019c:	02412783          	lw	a5,36(sp)
400001a0:	02812803          	lw	a6,40(sp)
400001a4:	02c12883          	lw	a7,44(sp)
400001a8:	03012e03          	lw	t3,48(sp)
400001ac:	03412e83          	lw	t4,52(sp)
400001b0:	03812f03          	lw	t5,56(sp)
400001b4:	03c12f83          	lw	t6,60(sp)
400001b8:	04410113          	addi	sp,sp,68
400001bc:	00106d93          	ori	s11,zero,1
400001c0:	f0000d37          	lui	s10,0xf0000
400001c4:	030d0d13          	addi	s10,s10,48 # f0000030 <_stack+0xa0000034>
400001c8:	01bd2023          	sw	s11,0(s10)
400001cc:	ffc12d03          	lw	s10,-4(sp)
400001d0:	000d0067          	jalr	zero,0(s10)

400001d4 <_exception>:
400001d4:	00088513          	addi	a0,a7,0
400001d8:	01412583          	lw	a1,20(sp)
400001dc:	01812603          	lw	a2,24(sp)
400001e0:	01c12683          	lw	a3,28(sp)
400001e4:	0a9000ef          	jal	ra,40000a8c <exception_handler>
400001e8:	f99ff06f          	jal	zero,40000180 <_restore_exception>

400001ec <_interrupt_set>:
400001ec:	f00005b7          	lui	a1,0xf0000
400001f0:	03058593          	addi	a1,a1,48 # f0000030 <_stack+0xa0000034>
400001f4:	0005a603          	lw	a2,0(a1)
400001f8:	00a5a023          	sw	a0,0(a1)
400001fc:	00060513          	addi	a0,a2,0
40000200:	00008067          	jalr	zero,0(ra)

40000204 <setjmp>:
40000204:	00852023          	sw	s0,0(a0)
40000208:	00952223          	sw	s1,4(a0)
4000020c:	01252423          	sw	s2,8(a0)
40000210:	01352623          	sw	s3,12(a0)
40000214:	01452823          	sw	s4,16(a0)
40000218:	01552a23          	sw	s5,20(a0)
4000021c:	01652c23          	sw	s6,24(a0)
40000220:	01752e23          	sw	s7,28(a0)
40000224:	03852023          	sw	s8,32(a0)
40000228:	03952223          	sw	s9,36(a0)
4000022c:	02452623          	sw	tp,44(a0)
40000230:	02252823          	sw	sp,48(a0)
40000234:	02152a23          	sw	ra,52(a0)
40000238:	00006513          	ori	a0,zero,0
4000023c:	00008067          	jalr	zero,0(ra)

40000240 <longjmp>:
40000240:	00052403          	lw	s0,0(a0)
40000244:	00452483          	lw	s1,4(a0)
40000248:	00852903          	lw	s2,8(a0)
4000024c:	00c52983          	lw	s3,12(a0)
40000250:	01052a03          	lw	s4,16(a0)
40000254:	01452a83          	lw	s5,20(a0)
40000258:	01852b03          	lw	s6,24(a0)
4000025c:	01c52b83          	lw	s7,28(a0)
40000260:	02052c03          	lw	s8,32(a0)
40000264:	02452c83          	lw	s9,36(a0)
40000268:	02c52203          	lw	tp,44(a0)
4000026c:	03052103          	lw	sp,48(a0)
40000270:	03452083          	lw	ra,52(a0)
40000274:	0005e513          	ori	a0,a1,0
40000278:	00008067          	jalr	zero,0(ra)

4000027c <syscall>:
4000027c:	00050893          	addi	a7,a0,0
40000280:	00000073          	ecall
40000284:	00008067          	jalr	zero,0(ra)

40000288 <fixtoa>:
40000288:	fb010113          	addi	sp,sp,-80
4000028c:	04812423          	sw	s0,72(sp)
40000290:	03312e23          	sw	s3,60(sp)
40000294:	03412c23          	sw	s4,56(sp)
40000298:	03612823          	sw	s6,48(sp)
4000029c:	04112623          	sw	ra,76(sp)
400002a0:	04912223          	sw	s1,68(sp)
400002a4:	05212023          	sw	s2,64(sp)
400002a8:	03512a23          	sw	s5,52(sp)
400002ac:	03712623          	sw	s7,44(sp)
400002b0:	03812423          	sw	s8,40(sp)
400002b4:	03912223          	sw	s9,36(sp)
400002b8:	00050413          	addi	s0,a0,0
400002bc:	00060993          	addi	s3,a2,0
400002c0:	00068a13          	addi	s4,a3,0
400002c4:	00000b13          	addi	s6,zero,0
400002c8:	0205d263          	bge	a1,zero,400002ec <fixtoa+0x64>
400002cc:	40a00533          	sub	a0,zero,a0
400002d0:	00a037b3          	sltu	a5,zero,a0
400002d4:	40b005b3          	sub	a1,zero,a1
400002d8:	02d00713          	addi	a4,zero,45
400002dc:	00e60023          	sb	a4,0(a2)
400002e0:	00050413          	addi	s0,a0,0
400002e4:	40f585b3          	sub	a1,a1,a5
400002e8:	00100b13          	addi	s6,zero,1
400002ec:	01059593          	slli	a1,a1,0x10
400002f0:	01045a93          	srli	s5,s0,0x10
400002f4:	0155eab3          	or	s5,a1,s5
400002f8:	00000b93          	addi	s7,zero,0
400002fc:	00900c13          	addi	s8,zero,9
40000300:	00c0006f          	jal	zero,4000030c <fixtoa+0x84>
40000304:	00050a93          	addi	s5,a0,0
40000308:	000c8b93          	addi	s7,s9,0
4000030c:	00a00593          	addi	a1,zero,10
40000310:	000a8513          	addi	a0,s5,0
40000314:	745000ef          	jal	ra,40001258 <__umodsi3>
40000318:	03050513          	addi	a0,a0,48
4000031c:	001b8c93          	addi	s9,s7,1
40000320:	00c10793          	addi	a5,sp,12
40000324:	0ff57493          	andi	s1,a0,255
40000328:	01978933          	add	s2,a5,s9
4000032c:	000a8513          	addi	a0,s5,0
40000330:	00a00593          	addi	a1,zero,10
40000334:	fe990fa3          	sb	s1,-1(s2)
40000338:	6b9000ef          	jal	ra,400011f0 <__udivsi3>
4000033c:	fd5c64e3          	bltu	s8,s5,40000304 <fixtoa+0x7c>
40000340:	01698733          	add	a4,s3,s6
40000344:	00090793          	addi	a5,s2,0
40000348:	00d10693          	addi	a3,sp,13
4000034c:	00c0006f          	jal	zero,40000358 <fixtoa+0xd0>
40000350:	ffe7c483          	lbu	s1,-2(a5)
40000354:	fff78793          	addi	a5,a5,-1
40000358:	00970023          	sb	s1,0(a4)
4000035c:	00170713          	addi	a4,a4,1
40000360:	fef698e3          	bne	a3,a5,40000350 <fixtoa+0xc8>
40000364:	017987b3          	add	a5,s3,s7
40000368:	000105b7          	lui	a1,0x10
4000036c:	016b8bb3          	add	s7,s7,s6
40000370:	fff58593          	addi	a1,a1,-1 # ffff <_entry-0x3fff0001>
40000374:	00fb0b33          	add	s6,s6,a5
40000378:	02e00713          	addi	a4,zero,46
4000037c:	002b8793          	addi	a5,s7,2
40000380:	00eb00a3          	sb	a4,1(s6)
40000384:	00b47533          	and	a0,s0,a1
40000388:	00b57533          	and	a0,a0,a1
4000038c:	00251713          	slli	a4,a0,0x2
40000390:	00a70533          	add	a0,a4,a0
40000394:	00151513          	slli	a0,a0,0x1
40000398:	00178693          	addi	a3,a5,1
4000039c:	01055713          	srli	a4,a0,0x10
400003a0:	fff78793          	addi	a5,a5,-1
400003a4:	03070713          	addi	a4,a4,48
400003a8:	00d98633          	add	a2,s3,a3
400003ac:	fee60fa3          	sb	a4,-1(a2)
400003b0:	41778733          	sub	a4,a5,s7
400003b4:	00068793          	addi	a5,a3,0
400003b8:	fd4748e3          	blt	a4,s4,40000388 <fixtoa+0x100>
400003bc:	00060023          	sb	zero,0(a2)
400003c0:	04c12083          	lw	ra,76(sp)
400003c4:	04812403          	lw	s0,72(sp)
400003c8:	04412483          	lw	s1,68(sp)
400003cc:	04012903          	lw	s2,64(sp)
400003d0:	03c12983          	lw	s3,60(sp)
400003d4:	03812a03          	lw	s4,56(sp)
400003d8:	03412a83          	lw	s5,52(sp)
400003dc:	03012b03          	lw	s6,48(sp)
400003e0:	02c12b83          	lw	s7,44(sp)
400003e4:	02812c03          	lw	s8,40(sp)
400003e8:	02412c83          	lw	s9,36(sp)
400003ec:	05010113          	addi	sp,sp,80
400003f0:	00008067          	jalr	zero,0(ra)

400003f4 <fix_exp>:
400003f4:	00b567b3          	or	a5,a0,a1
400003f8:	24078463          	beq	a5,zero,40000640 <fix_exp+0x24c>
400003fc:	fe010113          	addi	sp,sp,-32
40000400:	41f5d793          	srai	a5,a1,0x1f
40000404:	01212823          	sw	s2,16(sp)
40000408:	00058913          	addi	s2,a1,0
4000040c:	00a7c5b3          	xor	a1,a5,a0
40000410:	00912a23          	sw	s1,20(sp)
40000414:	0127c733          	xor	a4,a5,s2
40000418:	00050493          	addi	s1,a0,0
4000041c:	40f58533          	sub	a0,a1,a5
40000420:	00a5b5b3          	sltu	a1,a1,a0
40000424:	40f707b3          	sub	a5,a4,a5
40000428:	00017637          	lui	a2,0x17
4000042c:	40b785b3          	sub	a1,a5,a1
40000430:	15460613          	addi	a2,a2,340 # 17154 <_entry-0x3ffe8eac>
40000434:	00000693          	addi	a3,zero,0
40000438:	00812c23          	sw	s0,24(sp)
4000043c:	01512223          	sw	s5,4(sp)
40000440:	00112e23          	sw	ra,28(sp)
40000444:	01312623          	sw	s3,12(sp)
40000448:	01412423          	sw	s4,8(sp)
4000044c:	01612023          	sw	s6,0(sp)
40000450:	4f9000ef          	jal	ra,40001148 <__muldi3>
40000454:	01059793          	slli	a5,a1,0x10
40000458:	01055513          	srli	a0,a0,0x10
4000045c:	00a7e533          	or	a0,a5,a0
40000460:	00008ab7          	lui	s5,0x8
40000464:	015507b3          	add	a5,a0,s5
40000468:	4105d593          	srai	a1,a1,0x10
4000046c:	00a7b533          	sltu	a0,a5,a0
40000470:	ffff0ab7          	lui	s5,0xffff0
40000474:	00fafab3          	and	s5,s5,a5
40000478:	00b50433          	add	s0,a0,a1
4000047c:	18094063          	blt	s2,zero,400005fc <fix_exp+0x208>
40000480:	0000b637          	lui	a2,0xb
40000484:	17260613          	addi	a2,a2,370 # b172 <_entry-0x3fff4e8e>
40000488:	00000693          	addi	a3,zero,0
4000048c:	000a8513          	addi	a0,s5,0 # ffff0000 <_stack+0xafff0004>
40000490:	00040593          	addi	a1,s0,0
40000494:	4b5000ef          	jal	ra,40001148 <__muldi3>
40000498:	01059793          	slli	a5,a1,0x10
4000049c:	01055513          	srli	a0,a0,0x10
400004a0:	00a7e533          	or	a0,a5,a0
400004a4:	40a489b3          	sub	s3,s1,a0
400004a8:	4105d593          	srai	a1,a1,0x10
400004ac:	40b90933          	sub	s2,s2,a1
400004b0:	0134b4b3          	sltu	s1,s1,s3
400004b4:	409904b3          	sub	s1,s2,s1
400004b8:	00048693          	addi	a3,s1,0
400004bc:	00098613          	addi	a2,s3,0
400004c0:	00048593          	addi	a1,s1,0
400004c4:	00098513          	addi	a0,s3,0
400004c8:	481000ef          	jal	ra,40001148 <__muldi3>
400004cc:	01059793          	slli	a5,a1,0x10
400004d0:	01055b13          	srli	s6,a0,0x10
400004d4:	0167eb33          	or	s6,a5,s6
400004d8:	4105da13          	srai	s4,a1,0x10
400004dc:	01eb5713          	srli	a4,s6,0x1e
400004e0:	002a1793          	slli	a5,s4,0x2
400004e4:	00f767b3          	or	a5,a4,a5
400004e8:	002b1593          	slli	a1,s6,0x2
400004ec:	01079713          	slli	a4,a5,0x10
400004f0:	0105d593          	srli	a1,a1,0x10
400004f4:	00b765b3          	or	a1,a4,a1
400004f8:	f4a58513          	addi	a0,a1,-182
400004fc:	4107d793          	srai	a5,a5,0x10
40000500:	fff78793          	addi	a5,a5,-1
40000504:	00b535b3          	sltu	a1,a0,a1
40000508:	00f9d713          	srli	a4,s3,0xf
4000050c:	000b0613          	addi	a2,s6,0
40000510:	000a0693          	addi	a3,s4,0
40000514:	01149913          	slli	s2,s1,0x11
40000518:	00f585b3          	add	a1,a1,a5
4000051c:	01276933          	or	s2,a4,s2
40000520:	429000ef          	jal	ra,40001148 <__muldi3>
40000524:	01059713          	slli	a4,a1,0x10
40000528:	01055793          	srli	a5,a0,0x10
4000052c:	00003537          	lui	a0,0x3
40000530:	00f767b3          	or	a5,a4,a5
40000534:	aab50513          	addi	a0,a0,-1365 # 2aab <_entry-0x3fffd555>
40000538:	00a78533          	add	a0,a5,a0
4000053c:	00f537b3          	sltu	a5,a0,a5
40000540:	4105d593          	srai	a1,a1,0x10
40000544:	000b0613          	addi	a2,s6,0
40000548:	000a0693          	addi	a3,s4,0
4000054c:	00b785b3          	add	a1,a5,a1
40000550:	3f9000ef          	jal	ra,40001148 <__muldi3>
40000554:	01059793          	slli	a5,a1,0x10
40000558:	01055513          	srli	a0,a0,0x10
4000055c:	00a7e533          	or	a0,a5,a0
40000560:	000206b7          	lui	a3,0x20
40000564:	00d506b3          	add	a3,a0,a3
40000568:	4105d593          	srai	a1,a1,0x10
4000056c:	00a6b533          	sltu	a0,a3,a0
40000570:	41368633          	sub	a2,a3,s3
40000574:	00b50533          	add	a0,a0,a1
40000578:	00c6b6b3          	sltu	a3,a3,a2
4000057c:	409504b3          	sub	s1,a0,s1
40000580:	40d486b3          	sub	a3,s1,a3
40000584:	01199513          	slli	a0,s3,0x11
40000588:	00090593          	addi	a1,s2,0
4000058c:	521000ef          	jal	ra,400012ac <__divdi3>
40000590:	000107b7          	lui	a5,0x10
40000594:	00f50633          	add	a2,a0,a5
40000598:	00a63533          	sltu	a0,a2,a0
4000059c:	00b506b3          	add	a3,a0,a1
400005a0:	06044863          	blt	s0,zero,40000610 <fix_exp+0x21c>
400005a4:	01041413          	slli	s0,s0,0x10
400005a8:	010ada93          	srli	s5,s5,0x10
400005ac:	01546ab3          	or	s5,s0,s5
400005b0:	fe0a8593          	addi	a1,s5,-32
400005b4:	0a05c263          	blt	a1,zero,40000658 <fix_exp+0x264>
400005b8:	00b795b3          	sll	a1,a5,a1
400005bc:	00000513          	addi	a0,zero,0
400005c0:	389000ef          	jal	ra,40001148 <__muldi3>
400005c4:	01c12083          	lw	ra,28(sp)
400005c8:	01812403          	lw	s0,24(sp)
400005cc:	01059793          	slli	a5,a1,0x10
400005d0:	01055513          	srli	a0,a0,0x10
400005d4:	01412483          	lw	s1,20(sp)
400005d8:	01012903          	lw	s2,16(sp)
400005dc:	00c12983          	lw	s3,12(sp)
400005e0:	00812a03          	lw	s4,8(sp)
400005e4:	00412a83          	lw	s5,4(sp)
400005e8:	00012b03          	lw	s6,0(sp)
400005ec:	00a7e533          	or	a0,a5,a0
400005f0:	4105d593          	srai	a1,a1,0x10
400005f4:	02010113          	addi	sp,sp,32
400005f8:	00008067          	jalr	zero,0(ra)
400005fc:	41500ab3          	sub	s5,zero,s5
40000600:	015037b3          	sltu	a5,zero,s5
40000604:	40800433          	sub	s0,zero,s0
40000608:	40f40433          	sub	s0,s0,a5
4000060c:	e75ff06f          	jal	zero,40000480 <fix_exp+0x8c>
40000610:	41500ab3          	sub	s5,zero,s5
40000614:	01503733          	sltu	a4,zero,s5
40000618:	40800433          	sub	s0,zero,s0
4000061c:	40e40433          	sub	s0,s0,a4
40000620:	01041413          	slli	s0,s0,0x10
40000624:	010ada93          	srli	s5,s5,0x10
40000628:	01546ab3          	or	s5,s0,s5
4000062c:	fe0a8713          	addi	a4,s5,-32
40000630:	00074e63          	blt	a4,zero,4000064c <fix_exp+0x258>
40000634:	00000513          	addi	a0,zero,0
40000638:	00000593          	addi	a1,zero,0
4000063c:	f85ff06f          	jal	zero,400005c0 <fix_exp+0x1cc>
40000640:	00010537          	lui	a0,0x10
40000644:	00000593          	addi	a1,zero,0
40000648:	00008067          	jalr	zero,0(ra)
4000064c:	0157d533          	srl	a0,a5,s5
40000650:	00000593          	addi	a1,zero,0
40000654:	f6dff06f          	jal	zero,400005c0 <fix_exp+0x1cc>
40000658:	01f00593          	addi	a1,zero,31
4000065c:	41558733          	sub	a4,a1,s5
40000660:	000085b7          	lui	a1,0x8
40000664:	00e5d5b3          	srl	a1,a1,a4
40000668:	01579533          	sll	a0,a5,s5
4000066c:	f55ff06f          	jal	zero,400005c0 <fix_exp+0x1cc>

40000670 <fix_print>:
40000670:	fd010113          	addi	sp,sp,-48
40000674:	00c10613          	addi	a2,sp,12
40000678:	00600693          	addi	a3,zero,6
4000067c:	02112623          	sw	ra,44(sp)
40000680:	c09ff0ef          	jal	ra,40000288 <fixtoa>
40000684:	40001537          	lui	a0,0x40001
40000688:	00c10593          	addi	a1,sp,12
4000068c:	59050513          	addi	a0,a0,1424 # 40001590 <_etext>
40000690:	16d000ef          	jal	ra,40000ffc <printf>
40000694:	02c12083          	lw	ra,44(sp)
40000698:	03010113          	addi	sp,sp,48
4000069c:	00008067          	jalr	zero,0(ra)

400006a0 <hfunit_comp_fixed>:
400006a0:	fe010113          	addi	sp,sp,-32
400006a4:	01512223          	sw	s5,4(sp)
400006a8:	40002ab7          	lui	s5,0x40002
400006ac:	898aa803          	lw	a6,-1896(s5) # 40001898 <test_counter>
400006b0:	00112e23          	sw	ra,28(sp)
400006b4:	00812c23          	sw	s0,24(sp)
400006b8:	00180813          	addi	a6,a6,1
400006bc:	890aac23          	sw	a6,-1896(s5)
400006c0:	00050413          	addi	s0,a0,0
400006c4:	00912a23          	sw	s1,20(sp)
400006c8:	01212823          	sw	s2,16(sp)
400006cc:	00060493          	addi	s1,a2,0
400006d0:	00068913          	addi	s2,a3,0 # 20000 <_entry-0x3ffe0000>
400006d4:	01312623          	sw	s3,12(sp)
400006d8:	01412423          	sw	s4,8(sp)
400006dc:	00078993          	addi	s3,a5,0 # 10000 <_entry-0x3fff0000>
400006e0:	00070a13          	addi	s4,a4,0
400006e4:	01612023          	sw	s6,0(sp)
400006e8:	00058b13          	addi	s6,a1,0 # 8000 <_entry-0x3fff8000>
400006ec:	f85ff0ef          	jal	ra,40000670 <fix_print>
400006f0:	40001537          	lui	a0,0x40001
400006f4:	59850513          	addi	a0,a0,1432 # 40001598 <_etext+0x8>
400006f8:	105000ef          	jal	ra,40000ffc <printf>
400006fc:	00048513          	addi	a0,s1,0
40000700:	00090593          	addi	a1,s2,0
40000704:	f6dff0ef          	jal	ra,40000670 <fix_print>
40000708:	40001537          	lui	a0,0x40001
4000070c:	5b050513          	addi	a0,a0,1456 # 400015b0 <_etext+0x20>
40000710:	0ed000ef          	jal	ra,40000ffc <printf>
40000714:	00002837          	lui	a6,0x2
40000718:	40848533          	sub	a0,s1,s0
4000071c:	99a80813          	addi	a6,a6,-1638 # 199a <_entry-0x3fffe666>
40000720:	00a4b4b3          	sltu	s1,s1,a0
40000724:	41690933          	sub	s2,s2,s6
40000728:	01050833          	add	a6,a0,a6
4000072c:	00a83533          	sltu	a0,a6,a0
40000730:	412484b3          	sub	s1,s1,s2
40000734:	06a48a63          	beq	s1,a0,400007a8 <hfunit_comp_fixed+0x108>
40000738:	00100793          	addi	a5,zero,1
4000073c:	898aa583          	lw	a1,-1896(s5)
40000740:	04f99063          	bne	s3,a5,40000780 <hfunit_comp_fixed+0xe0>
40000744:	40001537          	lui	a0,0x40001
40000748:	000a0613          	addi	a2,s4,0
4000074c:	5b450513          	addi	a0,a0,1460 # 400015b4 <_etext+0x24>
40000750:	0ad000ef          	jal	ra,40000ffc <printf>
40000754:	00000513          	addi	a0,zero,0
40000758:	01c12083          	lw	ra,28(sp)
4000075c:	01812403          	lw	s0,24(sp)
40000760:	01412483          	lw	s1,20(sp)
40000764:	01012903          	lw	s2,16(sp)
40000768:	00c12983          	lw	s3,12(sp)
4000076c:	00812a03          	lw	s4,8(sp)
40000770:	00412a83          	lw	s5,4(sp)
40000774:	00012b03          	lw	s6,0(sp)
40000778:	02010113          	addi	sp,sp,32
4000077c:	00008067          	jalr	zero,0(ra)
40000780:	40002737          	lui	a4,0x40002
40000784:	89472783          	lw	a5,-1900(a4) # 40001894 <failed_tests>
40000788:	40001537          	lui	a0,0x40001
4000078c:	000a0613          	addi	a2,s4,0
40000790:	00178793          	addi	a5,a5,1
40000794:	59c50513          	addi	a0,a0,1436 # 4000159c <_etext+0xc>
40000798:	88f72a23          	sw	a5,-1900(a4)
4000079c:	061000ef          	jal	ra,40000ffc <printf>
400007a0:	00100513          	addi	a0,zero,1
400007a4:	fb5ff06f          	jal	zero,40000758 <hfunit_comp_fixed+0xb8>
400007a8:	000037b7          	lui	a5,0x3
400007ac:	33478793          	addi	a5,a5,820 # 3334 <_entry-0x3fffcccc>
400007b0:	f907e4e3          	bltu	a5,a6,40000738 <hfunit_comp_fixed+0x98>
400007b4:	898aa583          	lw	a1,-1896(s5)
400007b8:	f8dff06f          	jal	zero,40000744 <hfunit_comp_fixed+0xa4>

400007bc <dummy_handler>:
400007bc:	40001537          	lui	a0,0x40001
400007c0:	65050513          	addi	a0,a0,1616 # 40001650 <_etext+0xc0>
400007c4:	0390006f          	jal	zero,40000ffc <printf>

400007c8 <irq0_handler>:
400007c8:	e10007b7          	lui	a5,0xe1000
400007cc:	fd010113          	addi	sp,sp,-48
400007d0:	4007a783          	lw	a5,1024(a5) # e1000400 <_stack+0x91000404>
400007d4:	01312e23          	sw	s3,28(sp)
400007d8:	01412c23          	sw	s4,24(sp)
400007dc:	400029b7          	lui	s3,0x40002
400007e0:	40002a37          	lui	s4,0x40002
400007e4:	02912223          	sw	s1,36(sp)
400007e8:	03212023          	sw	s2,32(sp)
400007ec:	02112623          	sw	ra,44(sp)
400007f0:	02812423          	sw	s0,40(sp)
400007f4:	01512a23          	sw	s5,20(sp)
400007f8:	01612823          	sw	s6,16(sp)
400007fc:	01712623          	sw	s7,12(sp)
40000800:	01812423          	sw	s8,8(sp)
40000804:	01912223          	sw	s9,4(sp)
40000808:	02000913          	addi	s2,zero,32
4000080c:	00100493          	addi	s1,zero,1
40000810:	84c98993          	addi	s3,s3,-1972 # 4000184c <timer_vector>
40000814:	81ca0a13          	addi	s4,s4,-2020 # 4000181c <gpio_vector>
40000818:	e10007b7          	lui	a5,0xe1000
4000081c:	4007a703          	lw	a4,1024(a5) # e1000400 <_stack+0x91000404>
40000820:	00149493          	slli	s1,s1,0x1
40000824:	0c070663          	beq	a4,zero,400008f0 <irq0_handler+0x128>
40000828:	fff90913          	addi	s2,s2,-1
4000082c:	0c090263          	beq	s2,zero,400008f0 <irq0_handler+0x128>
40000830:	4007a783          	lw	a5,1024(a5)
40000834:	02000713          	addi	a4,zero,32
40000838:	0097f7b3          	and	a5,a5,s1
4000083c:	14f76463          	bltu	a4,a5,40000984 <irq0_handler+0x1bc>
40000840:	40001737          	lui	a4,0x40001
40000844:	00279793          	slli	a5,a5,0x2
40000848:	5cc70713          	addi	a4,a4,1484 # 400015cc <_etext+0x3c>
4000084c:	00e787b3          	add	a5,a5,a4
40000850:	0007a783          	lw	a5,0(a5)
40000854:	00078067          	jalr	zero,0(a5)
40000858:	e10117b7          	lui	a5,0xe1011
4000085c:	e1010737          	lui	a4,0xe1010
40000860:	40072403          	lw	s0,1024(a4) # e1010400 <_stack+0x91010404>
40000864:	8007a703          	lw	a4,-2048(a5) # e1010800 <_stack+0x91010804>
40000868:	c007a783          	lw	a5,-1024(a5)
4000086c:	00000c93          	addi	s9,zero,0
40000870:	00e44433          	xor	s0,s0,a4
40000874:	00f47433          	and	s0,s0,a5
40000878:	00100b13          	addi	s6,zero,1
4000087c:	e1014c37          	lui	s8,0xe1014
40000880:	00200a93          	addi	s5,zero,2
40000884:	e1015bb7          	lui	s7,0xe1015
40000888:	00147793          	andi	a5,s0,1
4000088c:	04078463          	beq	a5,zero,400008d4 <irq0_handler+0x10c>
40000890:	156c8a63          	beq	s9,s6,400009e4 <irq0_handler+0x21c>
40000894:	120c8663          	beq	s9,zero,400009c0 <irq0_handler+0x1f8>
40000898:	115c8263          	beq	s9,s5,4000099c <irq0_handler+0x1d4>
4000089c:	00300793          	addi	a5,zero,3
400008a0:	02fc9263          	bne	s9,a5,400008c4 <irq0_handler+0xfc>
400008a4:	c20ba783          	lw	a5,-992(s7) # e1014c20 <_stack+0x91014c24>
400008a8:	c30ba603          	lw	a2,-976(s7)
400008ac:	c40ba683          	lw	a3,-960(s7)
400008b0:	c30ba703          	lw	a4,-976(s7)
400008b4:	00c7c7b3          	xor	a5,a5,a2
400008b8:	00d7f7b3          	and	a5,a5,a3
400008bc:	00e7c7b3          	xor	a5,a5,a4
400008c0:	c2fba823          	sw	a5,-976(s7)
400008c4:	002c9793          	slli	a5,s9,0x2
400008c8:	00fa07b3          	add	a5,s4,a5
400008cc:	0007a783          	lw	a5,0(a5)
400008d0:	000780e7          	jalr	ra,0(a5)
400008d4:	00145413          	srli	s0,s0,0x1
400008d8:	001c8c93          	addi	s9,s9,1
400008dc:	fa0416e3          	bne	s0,zero,40000888 <irq0_handler+0xc0>
400008e0:	e10007b7          	lui	a5,0xe1000
400008e4:	4007a703          	lw	a4,1024(a5) # e1000400 <_stack+0x91000404>
400008e8:	00149493          	slli	s1,s1,0x1
400008ec:	f2071ee3          	bne	a4,zero,40000828 <irq0_handler+0x60>
400008f0:	02c12083          	lw	ra,44(sp)
400008f4:	02812403          	lw	s0,40(sp)
400008f8:	02412483          	lw	s1,36(sp)
400008fc:	02012903          	lw	s2,32(sp)
40000900:	01c12983          	lw	s3,28(sp)
40000904:	01812a03          	lw	s4,24(sp)
40000908:	01412a83          	lw	s5,20(sp)
4000090c:	01012b03          	lw	s6,16(sp)
40000910:	00c12b83          	lw	s7,12(sp)
40000914:	00812c03          	lw	s8,8(sp)
40000918:	00412c83          	lw	s9,4(sp)
4000091c:	03010113          	addi	sp,sp,48
40000920:	00008067          	jalr	zero,0(ra)
40000924:	e10217b7          	lui	a5,0xe1021
40000928:	e1020737          	lui	a4,0xe1020
4000092c:	40072403          	lw	s0,1024(a4) # e1020400 <_stack+0x91020404>
40000930:	8007a703          	lw	a4,-2048(a5) # e1020800 <_stack+0x91020804>
40000934:	c007a783          	lw	a5,-1024(a5)
40000938:	00000a93          	addi	s5,zero,0
4000093c:	00e44433          	xor	s0,s0,a4
40000940:	00f47433          	and	s0,s0,a5
40000944:	e1021bb7          	lui	s7,0xe1021
40000948:	00100b13          	addi	s6,zero,1
4000094c:	00147793          	andi	a5,s0,1
40000950:	02078263          	beq	a5,zero,40000974 <irq0_handler+0x1ac>
40000954:	800ba683          	lw	a3,-2048(s7) # e1020800 <_stack+0x91020804>
40000958:	002a9713          	slli	a4,s5,0x2
4000095c:	00e98733          	add	a4,s3,a4
40000960:	015b17b3          	sll	a5,s6,s5
40000964:	00072703          	lw	a4,0(a4)
40000968:	00d7c7b3          	xor	a5,a5,a3
4000096c:	80fba023          	sw	a5,-2048(s7)
40000970:	000700e7          	jalr	ra,0(a4)
40000974:	00145413          	srli	s0,s0,0x1
40000978:	001a8a93          	addi	s5,s5,1
4000097c:	fc0418e3          	bne	s0,zero,4000094c <irq0_handler+0x184>
40000980:	e99ff06f          	jal	zero,40000818 <irq0_handler+0x50>
40000984:	e10007b7          	lui	a5,0xe1000
40000988:	4007a583          	lw	a1,1024(a5) # e1000400 <_stack+0x91000404>
4000098c:	40001537          	lui	a0,0x40001
40000990:	68450513          	addi	a0,a0,1668 # 40001684 <_etext+0xf4>
40000994:	668000ef          	jal	ra,40000ffc <printf>
40000998:	e81ff06f          	jal	zero,40000818 <irq0_handler+0x50>
4000099c:	820ba783          	lw	a5,-2016(s7)
400009a0:	830ba603          	lw	a2,-2000(s7)
400009a4:	840ba683          	lw	a3,-1984(s7)
400009a8:	830ba703          	lw	a4,-2000(s7)
400009ac:	00c7c7b3          	xor	a5,a5,a2
400009b0:	00d7f7b3          	and	a5,a5,a3
400009b4:	00e7c7b3          	xor	a5,a5,a4
400009b8:	82fba823          	sw	a5,-2000(s7)
400009bc:	f09ff06f          	jal	zero,400008c4 <irq0_handler+0xfc>
400009c0:	020c2783          	lw	a5,32(s8) # e1014020 <_stack+0x91014024>
400009c4:	030c2603          	lw	a2,48(s8)
400009c8:	040c2683          	lw	a3,64(s8)
400009cc:	030c2703          	lw	a4,48(s8)
400009d0:	00c7c7b3          	xor	a5,a5,a2
400009d4:	00d7f7b3          	and	a5,a5,a3
400009d8:	00e7c7b3          	xor	a5,a5,a4
400009dc:	02fc2823          	sw	a5,48(s8)
400009e0:	ee5ff06f          	jal	zero,400008c4 <irq0_handler+0xfc>
400009e4:	420c2783          	lw	a5,1056(s8)
400009e8:	430c2603          	lw	a2,1072(s8)
400009ec:	440c2683          	lw	a3,1088(s8)
400009f0:	430c2703          	lw	a4,1072(s8)
400009f4:	00c7c7b3          	xor	a5,a5,a2
400009f8:	00d7f7b3          	and	a5,a5,a3
400009fc:	00e7c7b3          	xor	a5,a5,a4
40000a00:	42fc2823          	sw	a5,1072(s8)
40000a04:	ec1ff06f          	jal	zero,400008c4 <irq0_handler+0xfc>

40000a08 <irq_enable>:
40000a08:	e10347b7          	lui	a5,0xe1034
40000a0c:	1b200713          	addi	a4,zero,434
40000a10:	00e7a823          	sw	a4,16(a5) # e1034010 <_stack+0x91034014>
40000a14:	0007a023          	sw	zero,0(a5)
40000a18:	e1004637          	lui	a2,0xe1004
40000a1c:	00062783          	lw	a5,0(a2) # e1004000 <_stack+0x91004004>
40000a20:	f0000737          	lui	a4,0xf0000
40000a24:	00100693          	addi	a3,zero,1
40000a28:	1507e793          	ori	a5,a5,336
40000a2c:	00f62023          	sw	a5,0(a2)
40000a30:	02d72023          	sw	a3,32(a4) # f0000020 <_stack+0xa0000024>
40000a34:	02d72823          	sw	a3,48(a4)
40000a38:	00008067          	jalr	zero,0(ra)

40000a3c <irq_handler>:
40000a3c:	ff010113          	addi	sp,sp,-16
40000a40:	00912223          	sw	s1,4(sp)
40000a44:	400024b7          	lui	s1,0x40002
40000a48:	00812423          	sw	s0,8(sp)
40000a4c:	00112623          	sw	ra,12(sp)
40000a50:	00050413          	addi	s0,a0,0
40000a54:	82c48493          	addi	s1,s1,-2004 # 4000182c <irq_vector>
40000a58:	00147793          	andi	a5,s0,1
40000a5c:	00145413          	srli	s0,s0,0x1
40000a60:	00078863          	beq	a5,zero,40000a70 <irq_handler+0x34>
40000a64:	0004a783          	lw	a5,0(s1)
40000a68:	00078463          	beq	a5,zero,40000a70 <irq_handler+0x34>
40000a6c:	000780e7          	jalr	ra,0(a5)
40000a70:	00448493          	addi	s1,s1,4
40000a74:	fe0412e3          	bne	s0,zero,40000a58 <irq_handler+0x1c>
40000a78:	00c12083          	lw	ra,12(sp)
40000a7c:	00812403          	lw	s0,8(sp)
40000a80:	00412483          	lw	s1,4(sp)
40000a84:	01010113          	addi	sp,sp,16
40000a88:	00008067          	jalr	zero,0(ra)

40000a8c <exception_handler>:
40000a8c:	00068713          	addi	a4,a3,0
40000a90:	00060693          	addi	a3,a2,0
40000a94:	00058613          	addi	a2,a1,0
40000a98:	00050593          	addi	a1,a0,0
40000a9c:	40001537          	lui	a0,0x40001
40000aa0:	ff010113          	addi	sp,sp,-16
40000aa4:	65850513          	addi	a0,a0,1624 # 40001658 <_etext+0xc8>
40000aa8:	00112623          	sw	ra,12(sp)
40000aac:	550000ef          	jal	ra,40000ffc <printf>
40000ab0:	00c12083          	lw	ra,12(sp)
40000ab4:	fff00513          	addi	a0,zero,-1
40000ab8:	01010113          	addi	sp,sp,16
40000abc:	00008067          	jalr	zero,0(ra)

40000ac0 <printchar.part.0>:
40000ac0:	e1030737          	lui	a4,0xe1030
40000ac4:	40072783          	lw	a5,1024(a4) # e1030400 <_stack+0x91030404>
40000ac8:	0027f793          	andi	a5,a5,2
40000acc:	fe079ce3          	bne	a5,zero,40000ac4 <printchar.part.0+0x4>
40000ad0:	e10347b7          	lui	a5,0xe1034
40000ad4:	00a7a023          	sw	a0,0(a5) # e1034000 <_stack+0x91034004>
40000ad8:	00008067          	jalr	zero,0(ra)

40000adc <vsprintf>:
40000adc:	fb010113          	addi	sp,sp,-80
40000ae0:	04812423          	sw	s0,72(sp)
40000ae4:	04112623          	sw	ra,76(sp)
40000ae8:	04912223          	sw	s1,68(sp)
40000aec:	05212023          	sw	s2,64(sp)
40000af0:	03312e23          	sw	s3,60(sp)
40000af4:	03412c23          	sw	s4,56(sp)
40000af8:	03512a23          	sw	s5,52(sp)
40000afc:	03612823          	sw	s6,48(sp)
40000b00:	03712623          	sw	s7,44(sp)
40000b04:	03812423          	sw	s8,40(sp)
40000b08:	03912223          	sw	s9,36(sp)
40000b0c:	0005c783          	lbu	a5,0(a1)
40000b10:	00c12223          	sw	a2,4(sp)
40000b14:	00050413          	addi	s0,a0,0
40000b18:	1c078c63          	beq	a5,zero,40000cf0 <vsprintf+0x214>
40000b1c:	400019b7          	lui	s3,0x40001
40000b20:	6ac98713          	addi	a4,s3,1708 # 400016ac <_etext+0x11c>
40000b24:	40001937          	lui	s2,0x40001
40000b28:	00e12623          	sw	a4,12(sp)
40000b2c:	73890713          	addi	a4,s2,1848 # 40001738 <_etext+0x1a8>
40000b30:	00058a13          	addi	s4,a1,0
40000b34:	00e12423          	sw	a4,8(sp)
40000b38:	0300006f          	jal	zero,40000b68 <vsprintf+0x8c>
40000b3c:	2e040a63          	beq	s0,zero,40000e30 <vsprintf+0x354>
40000b40:	00042683          	lw	a3,0(s0)
40000b44:	000b8713          	addi	a4,s7,0
40000b48:	000a0b93          	addi	s7,s4,0
40000b4c:	00f68023          	sb	a5,0(a3)
40000b50:	00042783          	lw	a5,0(s0)
40000b54:	00070a13          	addi	s4,a4,0
40000b58:	00178793          	addi	a5,a5,1
40000b5c:	00f42023          	sw	a5,0(s0)
40000b60:	001bc783          	lbu	a5,1(s7)
40000b64:	18078663          	beq	a5,zero,40000cf0 <vsprintf+0x214>
40000b68:	02500713          	addi	a4,zero,37
40000b6c:	001a0b93          	addi	s7,s4,1
40000b70:	fce796e3          	bne	a5,a4,40000b3c <vsprintf+0x60>
40000b74:	001a4783          	lbu	a5,1(s4)
40000b78:	03000713          	addi	a4,zero,48
40000b7c:	02000993          	addi	s3,zero,32
40000b80:	00e79863          	bne	a5,a4,40000b90 <vsprintf+0xb4>
40000b84:	002a4783          	lbu	a5,2(s4)
40000b88:	002a0b93          	addi	s7,s4,2
40000b8c:	03000993          	addi	s3,zero,48
40000b90:	fd078713          	addi	a4,a5,-48
40000b94:	0ff77713          	andi	a4,a4,255
40000b98:	00900613          	addi	a2,zero,9
40000b9c:	fff00b13          	addi	s6,zero,-1
40000ba0:	2ae67463          	bgeu	a2,a4,40000e48 <vsprintf+0x36c>
40000ba4:	06c00713          	addi	a4,zero,108
40000ba8:	001b8a13          	addi	s4,s7,1
40000bac:	00e79a63          	bne	a5,a4,40000bc0 <vsprintf+0xe4>
40000bb0:	002b8713          	addi	a4,s7,2
40000bb4:	001bc783          	lbu	a5,1(s7)
40000bb8:	000a0b93          	addi	s7,s4,0
40000bbc:	00070a13          	addi	s4,a4,0
40000bc0:	fa878793          	addi	a5,a5,-88
40000bc4:	0ff7f793          	andi	a5,a5,255
40000bc8:	02000713          	addi	a4,zero,32
40000bcc:	f8f76ae3          	bltu	a4,a5,40000b60 <vsprintf+0x84>
40000bd0:	00c12703          	lw	a4,12(sp)
40000bd4:	00279793          	slli	a5,a5,0x2
40000bd8:	00e787b3          	add	a5,a5,a4
40000bdc:	0007a783          	lw	a5,0(a5)
40000be0:	00078067          	jalr	zero,0(a5)
40000be4:	00412783          	lw	a5,4(sp)
40000be8:	00a00c93          	addi	s9,zero,10
40000bec:	0007a903          	lw	s2,0(a5)
40000bf0:	00478793          	addi	a5,a5,4
40000bf4:	00f12223          	sw	a5,4(sp)
40000bf8:	18091663          	bne	s2,zero,40000d84 <vsprintf+0x2a8>
40000bfc:	03000793          	addi	a5,zero,48
40000c00:	00100a93          	addi	s5,zero,1
40000c04:	00f10823          	sb	a5,16(sp)
40000c08:	03000493          	addi	s1,zero,48
40000c0c:	00000c13          	addi	s8,zero,0
40000c10:	415b0ab3          	sub	s5,s6,s5
40000c14:	03505263          	bge	zero,s5,40000c38 <vsprintf+0x15c>
40000c18:	20040463          	beq	s0,zero,40000e20 <vsprintf+0x344>
40000c1c:	00042783          	lw	a5,0(s0)
40000c20:	fffa8a93          	addi	s5,s5,-1
40000c24:	01378023          	sb	s3,0(a5)
40000c28:	00042783          	lw	a5,0(s0)
40000c2c:	00178793          	addi	a5,a5,1
40000c30:	00f42023          	sw	a5,0(s0)
40000c34:	ff5042e3          	blt	zero,s5,40000c18 <vsprintf+0x13c>
40000c38:	02040a63          	beq	s0,zero,40000c6c <vsprintf+0x190>
40000c3c:	00042783          	lw	a5,0(s0)
40000c40:	00978023          	sb	s1,0(a5)
40000c44:	00042783          	lw	a5,0(s0)
40000c48:	00178793          	addi	a5,a5,1
40000c4c:	00f42023          	sw	a5,0(s0)
40000c50:	fffc0793          	addi	a5,s8,-1
40000c54:	f18056e3          	bge	zero,s8,40000b60 <vsprintf+0x84>
40000c58:	01010713          	addi	a4,sp,16
40000c5c:	00f70733          	add	a4,a4,a5
40000c60:	00074483          	lbu	s1,0(a4)
40000c64:	00078c13          	addi	s8,a5,0
40000c68:	fc041ae3          	bne	s0,zero,40000c3c <vsprintf+0x160>
40000c6c:	fe0482e3          	beq	s1,zero,40000c50 <vsprintf+0x174>
40000c70:	00048513          	addi	a0,s1,0
40000c74:	e4dff0ef          	jal	ra,40000ac0 <printchar.part.0>
40000c78:	fd9ff06f          	jal	zero,40000c50 <vsprintf+0x174>
40000c7c:	00412783          	lw	a5,4(sp)
40000c80:	0007aa83          	lw	s5,0(a5)
40000c84:	00478493          	addi	s1,a5,4
40000c88:	1e0a8863          	beq	s5,zero,40000e78 <vsprintf+0x39c>
40000c8c:	000ac503          	lbu	a0,0(s5)
40000c90:	02050863          	beq	a0,zero,40000cc0 <vsprintf+0x1e4>
40000c94:	040b0863          	beq	s6,zero,40000ce4 <vsprintf+0x208>
40000c98:	20040263          	beq	s0,zero,40000e9c <vsprintf+0x3c0>
40000c9c:	00042783          	lw	a5,0(s0)
40000ca0:	00a78023          	sb	a0,0(a5)
40000ca4:	00042783          	lw	a5,0(s0)
40000ca8:	00178793          	addi	a5,a5,1
40000cac:	00f42023          	sw	a5,0(s0)
40000cb0:	001a8a93          	addi	s5,s5,1
40000cb4:	000ac503          	lbu	a0,0(s5)
40000cb8:	fffb0b13          	addi	s6,s6,-1
40000cbc:	fc051ce3          	bne	a0,zero,40000c94 <vsprintf+0x1b8>
40000cc0:	03605263          	bge	zero,s6,40000ce4 <vsprintf+0x208>
40000cc4:	1e040063          	beq	s0,zero,40000ea4 <vsprintf+0x3c8>
40000cc8:	00042783          	lw	a5,0(s0)
40000ccc:	fffb0b13          	addi	s6,s6,-1
40000cd0:	01378023          	sb	s3,0(a5)
40000cd4:	00042783          	lw	a5,0(s0)
40000cd8:	00178793          	addi	a5,a5,1
40000cdc:	00f42023          	sw	a5,0(s0)
40000ce0:	ff6042e3          	blt	zero,s6,40000cc4 <vsprintf+0x1e8>
40000ce4:	001bc783          	lbu	a5,1(s7)
40000ce8:	00912223          	sw	s1,4(sp)
40000cec:	e6079ee3          	bne	a5,zero,40000b68 <vsprintf+0x8c>
40000cf0:	00040c63          	beq	s0,zero,40000d08 <vsprintf+0x22c>
40000cf4:	00042783          	lw	a5,0(s0)
40000cf8:	00078023          	sb	zero,0(a5)
40000cfc:	00042783          	lw	a5,0(s0)
40000d00:	00178793          	addi	a5,a5,1
40000d04:	00f42023          	sw	a5,0(s0)
40000d08:	04c12083          	lw	ra,76(sp)
40000d0c:	04812403          	lw	s0,72(sp)
40000d10:	04412483          	lw	s1,68(sp)
40000d14:	04012903          	lw	s2,64(sp)
40000d18:	03c12983          	lw	s3,60(sp)
40000d1c:	03812a03          	lw	s4,56(sp)
40000d20:	03412a83          	lw	s5,52(sp)
40000d24:	03012b03          	lw	s6,48(sp)
40000d28:	02c12b83          	lw	s7,44(sp)
40000d2c:	02812c03          	lw	s8,40(sp)
40000d30:	02412c83          	lw	s9,36(sp)
40000d34:	00000513          	addi	a0,zero,0
40000d38:	05010113          	addi	sp,sp,80
40000d3c:	00008067          	jalr	zero,0(ra)
40000d40:	00412783          	lw	a5,4(sp)
40000d44:	00a00c93          	addi	s9,zero,10
40000d48:	0007a903          	lw	s2,0(a5)
40000d4c:	00478a93          	addi	s5,a5,4
40000d50:	01512223          	sw	s5,4(sp)
40000d54:	ea0952e3          	bge	s2,zero,40000bf8 <vsprintf+0x11c>
40000d58:	41200933          	sub	s2,zero,s2
40000d5c:	14040c63          	beq	s0,zero,40000eb4 <vsprintf+0x3d8>
40000d60:	00042703          	lw	a4,0(s0)
40000d64:	02d00613          	addi	a2,zero,45
40000d68:	00c70023          	sb	a2,0(a4)
40000d6c:	00042703          	lw	a4,0(s0)
40000d70:	00170713          	addi	a4,a4,1
40000d74:	00e42023          	sw	a4,0(s0)
40000d78:	fffb0b13          	addi	s6,s6,-1
40000d7c:	01512223          	sw	s5,4(sp)
40000d80:	00a00c93          	addi	s9,zero,10
40000d84:	00000c13          	addi	s8,zero,0
40000d88:	0080006f          	jal	zero,40000d90 <vsprintf+0x2b4>
40000d8c:	000a8c13          	addi	s8,s5,0
40000d90:	000c8593          	addi	a1,s9,0
40000d94:	00090513          	addi	a0,s2,0
40000d98:	4c0000ef          	jal	ra,40001258 <__umodsi3>
40000d9c:	00812783          	lw	a5,8(sp)
40000da0:	001c0a93          	addi	s5,s8,1
40000da4:	000c8593          	addi	a1,s9,0
40000da8:	00a78533          	add	a0,a5,a0
40000dac:	00054483          	lbu	s1,0(a0)
40000db0:	01010793          	addi	a5,sp,16
40000db4:	015787b3          	add	a5,a5,s5
40000db8:	00090513          	addi	a0,s2,0
40000dbc:	fe978fa3          	sb	s1,-1(a5)
40000dc0:	01212023          	sw	s2,0(sp)
40000dc4:	42c000ef          	jal	ra,400011f0 <__udivsi3>
40000dc8:	00012603          	lw	a2,0(sp)
40000dcc:	00050913          	addi	s2,a0,0
40000dd0:	fb967ee3          	bgeu	a2,s9,40000d8c <vsprintf+0x2b0>
40000dd4:	415b0ab3          	sub	s5,s6,s5
40000dd8:	e3dff06f          	jal	zero,40000c14 <vsprintf+0x138>
40000ddc:	00412783          	lw	a5,4(sp)
40000de0:	00478713          	addi	a4,a5,4
40000de4:	0007a783          	lw	a5,0(a5)
40000de8:	0a040063          	beq	s0,zero,40000e88 <vsprintf+0x3ac>
40000dec:	00042683          	lw	a3,0(s0)
40000df0:	00e12223          	sw	a4,4(sp)
40000df4:	00f68023          	sb	a5,0(a3)
40000df8:	00042783          	lw	a5,0(s0)
40000dfc:	00178793          	addi	a5,a5,1
40000e00:	00f42023          	sw	a5,0(s0)
40000e04:	d5dff06f          	jal	zero,40000b60 <vsprintf+0x84>
40000e08:	00412783          	lw	a5,4(sp)
40000e0c:	01000c93          	addi	s9,zero,16
40000e10:	0007a903          	lw	s2,0(a5)
40000e14:	00478793          	addi	a5,a5,4
40000e18:	00f12223          	sw	a5,4(sp)
40000e1c:	dddff06f          	jal	zero,40000bf8 <vsprintf+0x11c>
40000e20:	00098513          	addi	a0,s3,0
40000e24:	c9dff0ef          	jal	ra,40000ac0 <printchar.part.0>
40000e28:	fffa8a93          	addi	s5,s5,-1
40000e2c:	e09ff06f          	jal	zero,40000c34 <vsprintf+0x158>
40000e30:	00078513          	addi	a0,a5,0
40000e34:	c8dff0ef          	jal	ra,40000ac0 <printchar.part.0>
40000e38:	000b8793          	addi	a5,s7,0
40000e3c:	000a0b93          	addi	s7,s4,0
40000e40:	00078a13          	addi	s4,a5,0
40000e44:	d1dff06f          	jal	zero,40000b60 <vsprintf+0x84>
40000e48:	00000b13          	addi	s6,zero,0
40000e4c:	002b1713          	slli	a4,s6,0x2
40000e50:	01670733          	add	a4,a4,s6
40000e54:	001b8b93          	addi	s7,s7,1
40000e58:	00171713          	slli	a4,a4,0x1
40000e5c:	00f70733          	add	a4,a4,a5
40000e60:	000bc783          	lbu	a5,0(s7)
40000e64:	fd070b13          	addi	s6,a4,-48
40000e68:	fd078713          	addi	a4,a5,-48
40000e6c:	0ff77713          	andi	a4,a4,255
40000e70:	fce67ee3          	bgeu	a2,a4,40000e4c <vsprintf+0x370>
40000e74:	d31ff06f          	jal	zero,40000ba4 <vsprintf+0xc8>
40000e78:	40001ab7          	lui	s5,0x40001
40000e7c:	730a8a93          	addi	s5,s5,1840 # 40001730 <_etext+0x1a0>
40000e80:	03c00513          	addi	a0,zero,60
40000e84:	e11ff06f          	jal	zero,40000c94 <vsprintf+0x1b8>
40000e88:	0ff7f513          	andi	a0,a5,255
40000e8c:	00e12223          	sw	a4,4(sp)
40000e90:	cc0508e3          	beq	a0,zero,40000b60 <vsprintf+0x84>
40000e94:	c2dff0ef          	jal	ra,40000ac0 <printchar.part.0>
40000e98:	cc9ff06f          	jal	zero,40000b60 <vsprintf+0x84>
40000e9c:	c25ff0ef          	jal	ra,40000ac0 <printchar.part.0>
40000ea0:	e11ff06f          	jal	zero,40000cb0 <vsprintf+0x1d4>
40000ea4:	00098513          	addi	a0,s3,0
40000ea8:	c19ff0ef          	jal	ra,40000ac0 <printchar.part.0>
40000eac:	fffb0b13          	addi	s6,s6,-1
40000eb0:	e31ff06f          	jal	zero,40000ce0 <vsprintf+0x204>
40000eb4:	02d00513          	addi	a0,zero,45
40000eb8:	c09ff0ef          	jal	ra,40000ac0 <printchar.part.0>
40000ebc:	ebdff06f          	jal	zero,40000d78 <vsprintf+0x29c>

40000ec0 <__udivmoddi4.part.2>:
40000ec0:	00100893          	addi	a7,zero,1
40000ec4:	00000793          	addi	a5,zero,0
40000ec8:	0206c863          	blt	a3,zero,40000ef8 <__udivmoddi4.part.2+0x38>
40000ecc:	01f65e13          	srli	t3,a2,0x1f
40000ed0:	00169693          	slli	a3,a3,0x1
40000ed4:	01f8d313          	srli	t1,a7,0x1f
40000ed8:	00179813          	slli	a6,a5,0x1
40000edc:	00de66b3          	or	a3,t3,a3
40000ee0:	00161613          	slli	a2,a2,0x1
40000ee4:	010367b3          	or	a5,t1,a6
40000ee8:	00189893          	slli	a7,a7,0x1
40000eec:	fe06d0e3          	bge	a3,zero,40000ecc <__udivmoddi4.part.2+0xc>
40000ef0:	00f8e833          	or	a6,a7,a5
40000ef4:	0e080e63          	beq	a6,zero,40000ff0 <__udivmoddi4.part.2+0x130>
40000ef8:	00000f13          	addi	t5,zero,0
40000efc:	00000293          	addi	t0,zero,0
40000f00:	01f79e93          	slli	t4,a5,0x1f
40000f04:	0018d813          	srli	a6,a7,0x1
40000f08:	01f69e13          	slli	t3,a3,0x1f
40000f0c:	00165313          	srli	t1,a2,0x1
40000f10:	0ad5e863          	bltu	a1,a3,40000fc0 <__udivmoddi4.part.2+0x100>
40000f14:	ff010113          	addi	sp,sp,-16
40000f18:	00812623          	sw	s0,12(sp)
40000f1c:	00912423          	sw	s1,8(sp)
40000f20:	01212223          	sw	s2,4(sp)
40000f24:	40c50fb3          	sub	t6,a0,a2
40000f28:	011f08b3          	add	a7,t5,a7
40000f2c:	01f534b3          	sltu	s1,a0,t6
40000f30:	40d58933          	sub	s2,a1,a3
40000f34:	01e8b433          	sltu	s0,a7,t5
40000f38:	00f283b3          	add	t2,t0,a5
40000f3c:	00b69463          	bne	a3,a1,40000f44 <__udivmoddi4.part.2+0x84>
40000f40:	00c56a63          	bltu	a0,a2,40000f54 <__udivmoddi4.part.2+0x94>
40000f44:	000f8513          	addi	a0,t6,0
40000f48:	409905b3          	sub	a1,s2,s1
40000f4c:	00088f13          	addi	t5,a7,0
40000f50:	007402b3          	add	t0,s0,t2
40000f54:	010ee8b3          	or	a7,t4,a6
40000f58:	0017d793          	srli	a5,a5,0x1
40000f5c:	00f8e833          	or	a6,a7,a5
40000f60:	006e6633          	or	a2,t3,t1
40000f64:	0016d693          	srli	a3,a3,0x1
40000f68:	02080863          	beq	a6,zero,40000f98 <__udivmoddi4.part.2+0xd8>
40000f6c:	01f79e93          	slli	t4,a5,0x1f
40000f70:	0018d813          	srli	a6,a7,0x1
40000f74:	01f69e13          	slli	t3,a3,0x1f
40000f78:	00165313          	srli	t1,a2,0x1
40000f7c:	fad5f4e3          	bgeu	a1,a3,40000f24 <__udivmoddi4.part.2+0x64>
40000f80:	010ee8b3          	or	a7,t4,a6
40000f84:	0017d793          	srli	a5,a5,0x1
40000f88:	00f8e833          	or	a6,a7,a5
40000f8c:	006e6633          	or	a2,t3,t1
40000f90:	0016d693          	srli	a3,a3,0x1
40000f94:	fc081ce3          	bne	a6,zero,40000f6c <__udivmoddi4.part.2+0xac>
40000f98:	00070663          	beq	a4,zero,40000fa4 <__udivmoddi4.part.2+0xe4>
40000f9c:	00a72023          	sw	a0,0(a4)
40000fa0:	00b72223          	sw	a1,4(a4)
40000fa4:	00c12403          	lw	s0,12(sp)
40000fa8:	00812483          	lw	s1,8(sp)
40000fac:	00412903          	lw	s2,4(sp)
40000fb0:	000f0513          	addi	a0,t5,0
40000fb4:	00028593          	addi	a1,t0,0
40000fb8:	01010113          	addi	sp,sp,16
40000fbc:	00008067          	jalr	zero,0(ra)
40000fc0:	010ee8b3          	or	a7,t4,a6
40000fc4:	0017d793          	srli	a5,a5,0x1
40000fc8:	00f8e833          	or	a6,a7,a5
40000fcc:	006e6633          	or	a2,t3,t1
40000fd0:	0016d693          	srli	a3,a3,0x1
40000fd4:	f20816e3          	bne	a6,zero,40000f00 <__udivmoddi4.part.2+0x40>
40000fd8:	00070663          	beq	a4,zero,40000fe4 <__udivmoddi4.part.2+0x124>
40000fdc:	00a72023          	sw	a0,0(a4)
40000fe0:	00b72223          	sw	a1,4(a4)
40000fe4:	000f0513          	addi	a0,t5,0
40000fe8:	00028593          	addi	a1,t0,0
40000fec:	00008067          	jalr	zero,0(ra)
40000ff0:	00088f13          	addi	t5,a7,0
40000ff4:	00078293          	addi	t0,a5,0
40000ff8:	fe1ff06f          	jal	zero,40000fd8 <__udivmoddi4.part.2+0x118>

40000ffc <printf>:
40000ffc:	fc010113          	addi	sp,sp,-64
40001000:	02410313          	addi	t1,sp,36
40001004:	02b12223          	sw	a1,36(sp)
40001008:	02c12423          	sw	a2,40(sp)
4000100c:	00050593          	addi	a1,a0,0
40001010:	00030613          	addi	a2,t1,0
40001014:	00000513          	addi	a0,zero,0
40001018:	00112e23          	sw	ra,28(sp)
4000101c:	02d12623          	sw	a3,44(sp)
40001020:	02e12823          	sw	a4,48(sp)
40001024:	02f12a23          	sw	a5,52(sp)
40001028:	03012c23          	sw	a6,56(sp)
4000102c:	03112e23          	sw	a7,60(sp)
40001030:	00612623          	sw	t1,12(sp)
40001034:	aa9ff0ef          	jal	ra,40000adc <vsprintf>
40001038:	01c12083          	lw	ra,28(sp)
4000103c:	04010113          	addi	sp,sp,64
40001040:	00008067          	jalr	zero,0(ra)

40001044 <__mulsi3>:
40001044:	02058463          	beq	a1,zero,4000106c <__mulsi3+0x28>
40001048:	00000713          	addi	a4,zero,0
4000104c:	0015f793          	andi	a5,a1,1
40001050:	0015d593          	srli	a1,a1,0x1
40001054:	00078463          	beq	a5,zero,4000105c <__mulsi3+0x18>
40001058:	00a70733          	add	a4,a4,a0
4000105c:	00151513          	slli	a0,a0,0x1
40001060:	fe0596e3          	bne	a1,zero,4000104c <__mulsi3+0x8>
40001064:	00070513          	addi	a0,a4,0
40001068:	00008067          	jalr	zero,0(ra)
4000106c:	00000513          	addi	a0,zero,0
40001070:	00008067          	jalr	zero,0(ra)

40001074 <__muldsi3>:
40001074:	fe010113          	addi	sp,sp,-32
40001078:	00812c23          	sw	s0,24(sp)
4000107c:	00010437          	lui	s0,0x10
40001080:	01312623          	sw	s3,12(sp)
40001084:	fff40993          	addi	s3,s0,-1 # ffff <_entry-0x3fff0001>
40001088:	00912a23          	sw	s1,20(sp)
4000108c:	01212823          	sw	s2,16(sp)
40001090:	0135f4b3          	and	s1,a1,s3
40001094:	01357933          	and	s2,a0,s3
40001098:	01412423          	sw	s4,8(sp)
4000109c:	01512223          	sw	s5,4(sp)
400010a0:	00050a13          	addi	s4,a0,0
400010a4:	00058a93          	addi	s5,a1,0
400010a8:	00090513          	addi	a0,s2,0
400010ac:	00048593          	addi	a1,s1,0
400010b0:	00112e23          	sw	ra,28(sp)
400010b4:	010a5a13          	srli	s4,s4,0x10
400010b8:	f8dff0ef          	jal	ra,40001044 <__mulsi3>
400010bc:	00050413          	addi	s0,a0,0
400010c0:	000a0593          	addi	a1,s4,0
400010c4:	00048513          	addi	a0,s1,0
400010c8:	f7dff0ef          	jal	ra,40001044 <__mulsi3>
400010cc:	01045493          	srli	s1,s0,0x10
400010d0:	009504b3          	add	s1,a0,s1
400010d4:	01049793          	slli	a5,s1,0x10
400010d8:	010ada93          	srli	s5,s5,0x10
400010dc:	01347433          	and	s0,s0,s3
400010e0:	00f40433          	add	s0,s0,a5
400010e4:	000a8593          	addi	a1,s5,0
400010e8:	00090513          	addi	a0,s2,0
400010ec:	f59ff0ef          	jal	ra,40001044 <__mulsi3>
400010f0:	01045913          	srli	s2,s0,0x10
400010f4:	01250933          	add	s2,a0,s2
400010f8:	000a8593          	addi	a1,s5,0
400010fc:	01091793          	slli	a5,s2,0x10
40001100:	01347433          	and	s0,s0,s3
40001104:	000a0513          	addi	a0,s4,0
40001108:	00f40433          	add	s0,s0,a5
4000110c:	0104d493          	srli	s1,s1,0x10
40001110:	f35ff0ef          	jal	ra,40001044 <__mulsi3>
40001114:	00a484b3          	add	s1,s1,a0
40001118:	01c12083          	lw	ra,28(sp)
4000111c:	00040513          	addi	a0,s0,0
40001120:	01812403          	lw	s0,24(sp)
40001124:	01095593          	srli	a1,s2,0x10
40001128:	00b485b3          	add	a1,s1,a1
4000112c:	01012903          	lw	s2,16(sp)
40001130:	01412483          	lw	s1,20(sp)
40001134:	00c12983          	lw	s3,12(sp)
40001138:	00812a03          	lw	s4,8(sp)
4000113c:	00412a83          	lw	s5,4(sp)
40001140:	02010113          	addi	sp,sp,32
40001144:	00008067          	jalr	zero,0(ra)

40001148 <__muldi3>:
40001148:	fe010113          	addi	sp,sp,-32
4000114c:	00912a23          	sw	s1,20(sp)
40001150:	01212823          	sw	s2,16(sp)
40001154:	00060493          	addi	s1,a2,0
40001158:	00058913          	addi	s2,a1,0
4000115c:	00060593          	addi	a1,a2,0
40001160:	00812c23          	sw	s0,24(sp)
40001164:	01312623          	sw	s3,12(sp)
40001168:	00112e23          	sw	ra,28(sp)
4000116c:	00068413          	addi	s0,a3,0
40001170:	00050993          	addi	s3,a0,0
40001174:	f01ff0ef          	jal	ra,40001074 <__muldsi3>
40001178:	06048863          	beq	s1,zero,400011e8 <__muldi3+0xa0>
4000117c:	00090793          	addi	a5,s2,0
40001180:	00000693          	addi	a3,zero,0
40001184:	0014f713          	andi	a4,s1,1
40001188:	0014d493          	srli	s1,s1,0x1
4000118c:	00070463          	beq	a4,zero,40001194 <__muldi3+0x4c>
40001190:	00f686b3          	add	a3,a3,a5
40001194:	00179793          	slli	a5,a5,0x1
40001198:	fe0496e3          	bne	s1,zero,40001184 <__muldi3+0x3c>
4000119c:	00068713          	addi	a4,a3,0
400011a0:	00040693          	addi	a3,s0,0
400011a4:	02040263          	beq	s0,zero,400011c8 <__muldi3+0x80>
400011a8:	00000613          	addi	a2,zero,0
400011ac:	0016f793          	andi	a5,a3,1
400011b0:	0016d693          	srli	a3,a3,0x1
400011b4:	00078463          	beq	a5,zero,400011bc <__muldi3+0x74>
400011b8:	01360633          	add	a2,a2,s3
400011bc:	00199993          	slli	s3,s3,0x1
400011c0:	fe0696e3          	bne	a3,zero,400011ac <__muldi3+0x64>
400011c4:	00c70733          	add	a4,a4,a2
400011c8:	01c12083          	lw	ra,28(sp)
400011cc:	01812403          	lw	s0,24(sp)
400011d0:	01412483          	lw	s1,20(sp)
400011d4:	01012903          	lw	s2,16(sp)
400011d8:	00c12983          	lw	s3,12(sp)
400011dc:	00b705b3          	add	a1,a4,a1
400011e0:	02010113          	addi	sp,sp,32
400011e4:	00008067          	jalr	zero,0(ra)
400011e8:	00000713          	addi	a4,zero,0
400011ec:	fb5ff06f          	jal	zero,400011a0 <__muldi3+0x58>

400011f0 <__udivsi3>:
400011f0:	00050693          	addi	a3,a0,0
400011f4:	04a5fc63          	bgeu	a1,a0,4000124c <__udivsi3+0x5c>
400011f8:	0405ca63          	blt	a1,zero,4000124c <__udivsi3+0x5c>
400011fc:	02000713          	addi	a4,zero,32
40001200:	00100793          	addi	a5,zero,1
40001204:	00c0006f          	jal	zero,40001210 <__udivsi3+0x20>
40001208:	02070e63          	beq	a4,zero,40001244 <__udivsi3+0x54>
4000120c:	0005cc63          	blt	a1,zero,40001224 <__udivsi3+0x34>
40001210:	00159593          	slli	a1,a1,0x1
40001214:	fff70713          	addi	a4,a4,-1
40001218:	00179793          	slli	a5,a5,0x1
4000121c:	fed5e6e3          	bltu	a1,a3,40001208 <__udivsi3+0x18>
40001220:	02078263          	beq	a5,zero,40001244 <__udivsi3+0x54>
40001224:	00000513          	addi	a0,zero,0
40001228:	00b6e663          	bltu	a3,a1,40001234 <__udivsi3+0x44>
4000122c:	40b686b3          	sub	a3,a3,a1
40001230:	00f56533          	or	a0,a0,a5
40001234:	0017d793          	srli	a5,a5,0x1
40001238:	0015d593          	srli	a1,a1,0x1
4000123c:	fe0796e3          	bne	a5,zero,40001228 <__udivsi3+0x38>
40001240:	00008067          	jalr	zero,0(ra)
40001244:	00000513          	addi	a0,zero,0
40001248:	00008067          	jalr	zero,0(ra)
4000124c:	00100793          	addi	a5,zero,1
40001250:	00000513          	addi	a0,zero,0
40001254:	fd5ff06f          	jal	zero,40001228 <__udivsi3+0x38>

40001258 <__umodsi3>:
40001258:	04a5f663          	bgeu	a1,a0,400012a4 <__umodsi3+0x4c>
4000125c:	0405c463          	blt	a1,zero,400012a4 <__umodsi3+0x4c>
40001260:	02000713          	addi	a4,zero,32
40001264:	00100793          	addi	a5,zero,1
40001268:	00c0006f          	jal	zero,40001274 <__umodsi3+0x1c>
4000126c:	02070863          	beq	a4,zero,4000129c <__umodsi3+0x44>
40001270:	0005cc63          	blt	a1,zero,40001288 <__umodsi3+0x30>
40001274:	00159593          	slli	a1,a1,0x1
40001278:	fff70713          	addi	a4,a4,-1
4000127c:	00179793          	slli	a5,a5,0x1
40001280:	fea5e6e3          	bltu	a1,a0,4000126c <__umodsi3+0x14>
40001284:	00078e63          	beq	a5,zero,400012a0 <__umodsi3+0x48>
40001288:	0017d793          	srli	a5,a5,0x1
4000128c:	00b56463          	bltu	a0,a1,40001294 <__umodsi3+0x3c>
40001290:	40b50533          	sub	a0,a0,a1
40001294:	0015d593          	srli	a1,a1,0x1
40001298:	fe0798e3          	bne	a5,zero,40001288 <__umodsi3+0x30>
4000129c:	00008067          	jalr	zero,0(ra)
400012a0:	00008067          	jalr	zero,0(ra)
400012a4:	00100793          	addi	a5,zero,1
400012a8:	fe1ff06f          	jal	zero,40001288 <__umodsi3+0x30>

400012ac <__divdi3>:
400012ac:	ff010113          	addi	sp,sp,-16
400012b0:	00812423          	sw	s0,8(sp)
400012b4:	00112623          	sw	ra,12(sp)
400012b8:	00000413          	addi	s0,zero,0
400012bc:	0605c663          	blt	a1,zero,40001328 <__divdi3+0x7c>
400012c0:	0406c063          	blt	a3,zero,40001300 <__divdi3+0x54>
400012c4:	00d66833          	or	a6,a2,a3
400012c8:	00100793          	addi	a5,zero,1
400012cc:	00000713          	addi	a4,zero,0
400012d0:	04081263          	bne	a6,zero,40001314 <__divdi3+0x68>
400012d4:	00040a63          	beq	s0,zero,400012e8 <__divdi3+0x3c>
400012d8:	40f007b3          	sub	a5,zero,a5
400012dc:	00f036b3          	sltu	a3,zero,a5
400012e0:	40e00733          	sub	a4,zero,a4
400012e4:	40d70733          	sub	a4,a4,a3
400012e8:	00c12083          	lw	ra,12(sp)
400012ec:	00812403          	lw	s0,8(sp)
400012f0:	00078513          	addi	a0,a5,0
400012f4:	00070593          	addi	a1,a4,0
400012f8:	01010113          	addi	sp,sp,16
400012fc:	00008067          	jalr	zero,0(ra)
40001300:	40c00633          	sub	a2,zero,a2
40001304:	00c037b3          	sltu	a5,zero,a2
40001308:	40d006b3          	sub	a3,zero,a3
4000130c:	00144413          	xori	s0,s0,1
40001310:	40f686b3          	sub	a3,a3,a5
40001314:	00000713          	addi	a4,zero,0
40001318:	ba9ff0ef          	jal	ra,40000ec0 <__udivmoddi4.part.2>
4000131c:	00050793          	addi	a5,a0,0
40001320:	00058713          	addi	a4,a1,0
40001324:	fb1ff06f          	jal	zero,400012d4 <__divdi3+0x28>
40001328:	40a00533          	sub	a0,zero,a0
4000132c:	00a037b3          	sltu	a5,zero,a0
40001330:	40b005b3          	sub	a1,zero,a1
40001334:	40f585b3          	sub	a1,a1,a5
40001338:	00100413          	addi	s0,zero,1
4000133c:	f85ff06f          	jal	zero,400012c0 <__divdi3+0x14>

40001340 <fix_exp_test0>:
40001340:	ff010113          	addi	sp,sp,-16
40001344:	00000513          	addi	a0,zero,0
40001348:	00000593          	addi	a1,zero,0
4000134c:	00112623          	sw	ra,12(sp)
40001350:	8a4ff0ef          	jal	ra,400003f4 <fix_exp>
40001354:	00c12083          	lw	ra,12(sp)
40001358:	40001737          	lui	a4,0x40001
4000135c:	00000793          	addi	a5,zero,0
40001360:	74c70713          	addi	a4,a4,1868 # 4000174c <_etext+0x1bc>
40001364:	00010637          	lui	a2,0x10
40001368:	00000693          	addi	a3,zero,0
4000136c:	01010113          	addi	sp,sp,16
40001370:	b30ff06f          	jal	zero,400006a0 <hfunit_comp_fixed>

40001374 <fix_exp_test1>:
40001374:	ff010113          	addi	sp,sp,-16
40001378:	00010537          	lui	a0,0x10
4000137c:	00000593          	addi	a1,zero,0
40001380:	00112623          	sw	ra,12(sp)
40001384:	870ff0ef          	jal	ra,400003f4 <fix_exp>
40001388:	00c12083          	lw	ra,12(sp)
4000138c:	40001737          	lui	a4,0x40001
40001390:	0002b637          	lui	a2,0x2b
40001394:	00000793          	addi	a5,zero,0
40001398:	75870713          	addi	a4,a4,1880 # 40001758 <_etext+0x1c8>
4000139c:	7e060613          	addi	a2,a2,2016 # 2b7e0 <_entry-0x3ffd4820>
400013a0:	00000693          	addi	a3,zero,0
400013a4:	01010113          	addi	sp,sp,16
400013a8:	af8ff06f          	jal	zero,400006a0 <hfunit_comp_fixed>

400013ac <fix_exp_test2>:
400013ac:	ff010113          	addi	sp,sp,-16
400013b0:	00020537          	lui	a0,0x20
400013b4:	00000593          	addi	a1,zero,0
400013b8:	00112623          	sw	ra,12(sp)
400013bc:	838ff0ef          	jal	ra,400003f4 <fix_exp>
400013c0:	00c12083          	lw	ra,12(sp)
400013c4:	40001737          	lui	a4,0x40001
400013c8:	00076637          	lui	a2,0x76
400013cc:	00000793          	addi	a5,zero,0
400013d0:	77870713          	addi	a4,a4,1912 # 40001778 <_etext+0x1e8>
400013d4:	39960613          	addi	a2,a2,921 # 76399 <_entry-0x3ff89c67>
400013d8:	00000693          	addi	a3,zero,0
400013dc:	01010113          	addi	sp,sp,16
400013e0:	ac0ff06f          	jal	zero,400006a0 <hfunit_comp_fixed>

400013e4 <fix_exp_testA>:
400013e4:	ff010113          	addi	sp,sp,-16
400013e8:	06100513          	addi	a0,zero,97
400013ec:	00000593          	addi	a1,zero,0
400013f0:	00112623          	sw	ra,12(sp)
400013f4:	800ff0ef          	jal	ra,400003f4 <fix_exp>
400013f8:	00c12083          	lw	ra,12(sp)
400013fc:	40001737          	lui	a4,0x40001
40001400:	00100793          	addi	a5,zero,1
40001404:	78470713          	addi	a4,a4,1924 # 40001784 <_etext+0x1f4>
40001408:	00000613          	addi	a2,zero,0
4000140c:	00000693          	addi	a3,zero,0
40001410:	01010113          	addi	sp,sp,16
40001414:	a8cff06f          	jal	zero,400006a0 <hfunit_comp_fixed>

40001418 <fix_exp_testNEG1>:
40001418:	ff010113          	addi	sp,sp,-16
4000141c:	ffff0537          	lui	a0,0xffff0
40001420:	fff00593          	addi	a1,zero,-1
40001424:	00112623          	sw	ra,12(sp)
40001428:	fcdfe0ef          	jal	ra,400003f4 <fix_exp>
4000142c:	00c12083          	lw	ra,12(sp)
40001430:	40001737          	lui	a4,0x40001
40001434:	00006637          	lui	a2,0x6
40001438:	00000793          	addi	a5,zero,0
4000143c:	7a870713          	addi	a4,a4,1960 # 400017a8 <_etext+0x218>
40001440:	e2d60613          	addi	a2,a2,-467 # 5e2d <_entry-0x3fffa1d3>
40001444:	00000693          	addi	a3,zero,0
40001448:	01010113          	addi	sp,sp,16
4000144c:	a54ff06f          	jal	zero,400006a0 <hfunit_comp_fixed>

40001450 <fix_exp_testMax>:
40001450:	00163537          	lui	a0,0x163
40001454:	ff010113          	addi	sp,sp,-16
40001458:	e4350513          	addi	a0,a0,-445 # 162e43 <_entry-0x3fe9d1bd>
4000145c:	00000593          	addi	a1,zero,0
40001460:	00112623          	sw	ra,12(sp)
40001464:	f91fe0ef          	jal	ra,400003f4 <fix_exp>
40001468:	00c12083          	lw	ra,12(sp)
4000146c:	40001737          	lui	a4,0x40001
40001470:	000106b7          	lui	a3,0x10
40001474:	00100793          	addi	a5,zero,1
40001478:	79070713          	addi	a4,a4,1936 # 40001790 <_etext+0x200>
4000147c:	ff900613          	addi	a2,zero,-7
40001480:	fff68693          	addi	a3,a3,-1 # ffff <_entry-0x3fff0001>
40001484:	01010113          	addi	sp,sp,16
40001488:	a18ff06f          	jal	zero,400006a0 <hfunit_comp_fixed>

4000148c <fix_exp_testMin>:
4000148c:	ff010113          	addi	sp,sp,-16
40001490:	00700513          	addi	a0,zero,7
40001494:	ffff05b7          	lui	a1,0xffff0
40001498:	00112623          	sw	ra,12(sp)
4000149c:	f59fe0ef          	jal	ra,400003f4 <fix_exp>
400014a0:	00c12083          	lw	ra,12(sp)
400014a4:	40001737          	lui	a4,0x40001
400014a8:	00100793          	addi	a5,zero,1
400014ac:	79c70713          	addi	a4,a4,1948 # 4000179c <_etext+0x20c>
400014b0:	00000613          	addi	a2,zero,0
400014b4:	00000693          	addi	a3,zero,0
400014b8:	01010113          	addi	sp,sp,16
400014bc:	9e4ff06f          	jal	zero,400006a0 <hfunit_comp_fixed>

400014c0 <hfunit_run_tests>:
400014c0:	ff010113          	addi	sp,sp,-16
400014c4:	00112623          	sw	ra,12(sp)
400014c8:	e79ff0ef          	jal	ra,40001340 <fix_exp_test0>
400014cc:	ea9ff0ef          	jal	ra,40001374 <fix_exp_test1>
400014d0:	eddff0ef          	jal	ra,400013ac <fix_exp_test2>
400014d4:	f11ff0ef          	jal	ra,400013e4 <fix_exp_testA>
400014d8:	f41ff0ef          	jal	ra,40001418 <fix_exp_testNEG1>
400014dc:	f75ff0ef          	jal	ra,40001450 <fix_exp_testMax>
400014e0:	00c12083          	lw	ra,12(sp)
400014e4:	01010113          	addi	sp,sp,16
400014e8:	fa5ff06f          	jal	zero,4000148c <fix_exp_testMin>

400014ec <main_test>:
400014ec:	ff010113          	addi	sp,sp,-16
400014f0:	00912223          	sw	s1,4(sp)
400014f4:	400014b7          	lui	s1,0x40001
400014f8:	7b448513          	addi	a0,s1,1972 # 400017b4 <_etext+0x224>
400014fc:	00112623          	sw	ra,12(sp)
40001500:	00812423          	sw	s0,8(sp)
40001504:	af9ff0ef          	jal	ra,40000ffc <printf>
40001508:	fb9ff0ef          	jal	ra,400014c0 <hfunit_run_tests>
4000150c:	7b448513          	addi	a0,s1,1972
40001510:	aedff0ef          	jal	ra,40000ffc <printf>
40001514:	40002437          	lui	s0,0x40002
40001518:	400027b7          	lui	a5,0x40002
4000151c:	89440413          	addi	s0,s0,-1900 # 40001894 <failed_tests>
40001520:	00042603          	lw	a2,0(s0)
40001524:	8907a583          	lw	a1,-1904(a5) # 40001890 <_edata>
40001528:	40001537          	lui	a0,0x40001
4000152c:	7cc50513          	addi	a0,a0,1996 # 400017cc <_etext+0x23c>
40001530:	acdff0ef          	jal	ra,40000ffc <printf>
40001534:	7b448513          	addi	a0,s1,1972
40001538:	ac5ff0ef          	jal	ra,40000ffc <printf>
4000153c:	00042403          	lw	s0,0(s0)
40001540:	02040663          	beq	s0,zero,4000156c <main_test+0x80>
40001544:	40001537          	lui	a0,0x40001
40001548:	7f450513          	addi	a0,a0,2036 # 400017f4 <_etext+0x264>
4000154c:	ab1ff0ef          	jal	ra,40000ffc <printf>
40001550:	00100413          	addi	s0,zero,1
40001554:	00040513          	addi	a0,s0,0
40001558:	00c12083          	lw	ra,12(sp)
4000155c:	00812403          	lw	s0,8(sp)
40001560:	00412483          	lw	s1,4(sp)
40001564:	01010113          	addi	sp,sp,16
40001568:	00008067          	jalr	zero,0(ra)
4000156c:	40002537          	lui	a0,0x40002
40001570:	80850513          	addi	a0,a0,-2040 # 40001808 <_etext+0x278>
40001574:	a89ff0ef          	jal	ra,40000ffc <printf>
40001578:	00040513          	addi	a0,s0,0
4000157c:	00c12083          	lw	ra,12(sp)
40001580:	00812403          	lw	s0,8(sp)
40001584:	00412483          	lw	s1,4(sp)
40001588:	01010113          	addi	sp,sp,16
4000158c:	00008067          	jalr	zero,0(ra)
