
test.elf: formato do arquivo elf32-littleriscv


Desmontagem da seção .text:

40000000 <_entry>:
40000000:	00003697          	auipc	a3,0x3
40000004:	e1068693          	addi	a3,a3,-496 # 40002e10 <_edata>
40000008:	00003617          	auipc	a2,0x3
4000000c:	e1460613          	addi	a2,a2,-492 # 40002e1c <_bss_end>
40000010:	00003197          	auipc	gp,0x3
40000014:	60018193          	addi	gp,gp,1536 # 40003610 <_gp>
40000018:	10000117          	auipc	sp,0x10000
4000001c:	fe410113          	addi	sp,sp,-28 # 4ffffffc <_stack>
40000020:	00003217          	auipc	tp,0x3
40000024:	e3b20213          	addi	tp,tp,-453 # 40002e5b <_bss_end+0x3f>
40000028:	fc027213          	andi	tp,tp,-64

4000002c <BSS_CLEAR>:
4000002c:	0006a023          	sw	zero,0(a3)
40000030:	00468693          	addi	a3,a3,4
40000034:	fec6cce3          	blt	a3,a2,4000002c <BSS_CLEAR>
40000038:	00000d97          	auipc	s11,0x0
4000003c:	0c8d8d93          	addi	s11,s11,200 # 40000100 <_isr>
40000040:	f0000d37          	lui	s10,0xf0000
40000044:	01bd2023          	sw	s11,0(s10) # f0000000 <_stack+0xa0000004>
40000048:	5fc000ef          	jal	ra,40000644 <irq_enable>
4000004c:	7f4020ef          	jal	ra,40002840 <main_test>
40000050:	e0000d37          	lui	s10,0xe0000
40000054:	000d2023          	sw	zero,0(s10) # e0000000 <_stack+0x90000004>

40000058 <L1>:
40000058:	00000063          	beq	zero,zero,40000058 <L1>
	...

40000100 <_isr>:
40000100:	00000013          	addi	zero,zero,0
40000104:	fbc10113          	addi	sp,sp,-68
40000108:	00112023          	sw	ra,0(sp)
4000010c:	00512223          	sw	t0,4(sp)
40000110:	00612423          	sw	t1,8(sp)
40000114:	00712623          	sw	t2,12(sp)
40000118:	00a12823          	sw	a0,16(sp)
4000011c:	00b12a23          	sw	a1,20(sp)
40000120:	00c12c23          	sw	a2,24(sp)
40000124:	00d12e23          	sw	a3,28(sp)
40000128:	02e12023          	sw	a4,32(sp)
4000012c:	02f12223          	sw	a5,36(sp)
40000130:	03012423          	sw	a6,40(sp)
40000134:	03112623          	sw	a7,44(sp)
40000138:	03c12823          	sw	t3,48(sp)
4000013c:	03d12a23          	sw	t4,52(sp)
40000140:	03e12c23          	sw	t5,56(sp)
40000144:	03f12e23          	sw	t6,60(sp)
40000148:	f0000d37          	lui	s10,0xf0000
4000014c:	040d0d13          	addi	s10,s10,64 # f0000040 <_stack+0xa0000044>
40000150:	000d2d03          	lw	s10,0(s10)
40000154:	ffcd0d13          	addi	s10,s10,-4
40000158:	05a12023          	sw	s10,64(sp)
4000015c:	f00005b7          	lui	a1,0xf0000
40000160:	0105a503          	lw	a0,16(a1) # f0000010 <_stack+0xa0000014>
40000164:	0205a603          	lw	a2,32(a1)
40000168:	00c57533          	and	a0,a0,a2
4000016c:	00010593          	addi	a1,sp,0
40000170:	06050263          	beq	a0,zero,400001d4 <_exception>
40000174:	504000ef          	jal	ra,40000678 <irq_handler>

40000178 <_restore>:
40000178:	01012503          	lw	a0,16(sp)
4000017c:	01412583          	lw	a1,20(sp)

40000180 <_restore_exception>:
40000180:	00012083          	lw	ra,0(sp)
40000184:	00412283          	lw	t0,4(sp)
40000188:	00812303          	lw	t1,8(sp)
4000018c:	00c12383          	lw	t2,12(sp)
40000190:	01812603          	lw	a2,24(sp)
40000194:	01c12683          	lw	a3,28(sp)
40000198:	02012703          	lw	a4,32(sp)
4000019c:	02412783          	lw	a5,36(sp)
400001a0:	02812803          	lw	a6,40(sp)
400001a4:	02c12883          	lw	a7,44(sp)
400001a8:	03012e03          	lw	t3,48(sp)
400001ac:	03412e83          	lw	t4,52(sp)
400001b0:	03812f03          	lw	t5,56(sp)
400001b4:	03c12f83          	lw	t6,60(sp)
400001b8:	04410113          	addi	sp,sp,68
400001bc:	00106d93          	ori	s11,zero,1
400001c0:	f0000d37          	lui	s10,0xf0000
400001c4:	030d0d13          	addi	s10,s10,48 # f0000030 <_stack+0xa0000034>
400001c8:	01bd2023          	sw	s11,0(s10)
400001cc:	ffc12d03          	lw	s10,-4(sp)
400001d0:	000d0067          	jalr	zero,0(s10)

400001d4 <_exception>:
400001d4:	00088513          	addi	a0,a7,0
400001d8:	01412583          	lw	a1,20(sp)
400001dc:	01812603          	lw	a2,24(sp)
400001e0:	01c12683          	lw	a3,28(sp)
400001e4:	4e4000ef          	jal	ra,400006c8 <exception_handler>
400001e8:	f99ff06f          	jal	zero,40000180 <_restore_exception>

400001ec <_interrupt_set>:
400001ec:	f00005b7          	lui	a1,0xf0000
400001f0:	03058593          	addi	a1,a1,48 # f0000030 <_stack+0xa0000034>
400001f4:	0005a603          	lw	a2,0(a1)
400001f8:	00a5a023          	sw	a0,0(a1)
400001fc:	00060513          	addi	a0,a2,0
40000200:	00008067          	jalr	zero,0(ra)

40000204 <setjmp>:
40000204:	00852023          	sw	s0,0(a0)
40000208:	00952223          	sw	s1,4(a0)
4000020c:	01252423          	sw	s2,8(a0)
40000210:	01352623          	sw	s3,12(a0)
40000214:	01452823          	sw	s4,16(a0)
40000218:	01552a23          	sw	s5,20(a0)
4000021c:	01652c23          	sw	s6,24(a0)
40000220:	01752e23          	sw	s7,28(a0)
40000224:	03852023          	sw	s8,32(a0)
40000228:	03952223          	sw	s9,36(a0)
4000022c:	02452623          	sw	tp,44(a0)
40000230:	02252823          	sw	sp,48(a0)
40000234:	02152a23          	sw	ra,52(a0)
40000238:	00006513          	ori	a0,zero,0
4000023c:	00008067          	jalr	zero,0(ra)

40000240 <longjmp>:
40000240:	00052403          	lw	s0,0(a0)
40000244:	00452483          	lw	s1,4(a0)
40000248:	00852903          	lw	s2,8(a0)
4000024c:	00c52983          	lw	s3,12(a0)
40000250:	01052a03          	lw	s4,16(a0)
40000254:	01452a83          	lw	s5,20(a0)
40000258:	01852b03          	lw	s6,24(a0)
4000025c:	01c52b83          	lw	s7,28(a0)
40000260:	02052c03          	lw	s8,32(a0)
40000264:	02452c83          	lw	s9,36(a0)
40000268:	02c52203          	lw	tp,44(a0)
4000026c:	03052103          	lw	sp,48(a0)
40000270:	03452083          	lw	ra,52(a0)
40000274:	0005e513          	ori	a0,a1,0
40000278:	00008067          	jalr	zero,0(ra)

4000027c <syscall>:
4000027c:	00050893          	addi	a7,a0,0
40000280:	00000073          	ecall
40000284:	00008067          	jalr	zero,0(ra)

40000288 <printBits>:
40000288:	fff50793          	addi	a5,a0,-1
4000028c:	0807c263          	blt	a5,zero,40000310 <printBits+0x88>
40000290:	fe010113          	addi	sp,sp,-32
40000294:	00912a23          	sw	s1,20(sp)
40000298:	01212823          	sw	s2,16(sp)
4000029c:	01312623          	sw	s3,12(sp)
400002a0:	01412423          	sw	s4,8(sp)
400002a4:	00112e23          	sw	ra,28(sp)
400002a8:	00812c23          	sw	s0,24(sp)
400002ac:	00a584b3          	add	s1,a1,a0
400002b0:	400039b7          	lui	s3,0x40003
400002b4:	fff5ca13          	xori	s4,a1,-1
400002b8:	fff00913          	addi	s2,zero,-1
400002bc:	00700413          	addi	s0,zero,7
400002c0:	fff4c583          	lbu	a1,-1(s1)
400002c4:	91898513          	addi	a0,s3,-1768 # 40002918 <_etext+0x34>
400002c8:	4085d5b3          	sra	a1,a1,s0
400002cc:	0015f593          	andi	a1,a1,1
400002d0:	fff40413          	addi	s0,s0,-1
400002d4:	2a9000ef          	jal	ra,40000d7c <printf>
400002d8:	ff2414e3          	bne	s0,s2,400002c0 <printBits+0x38>
400002dc:	fff48493          	addi	s1,s1,-1
400002e0:	009a07b3          	add	a5,s4,s1
400002e4:	fc07dce3          	bge	a5,zero,400002bc <printBits+0x34>
400002e8:	01812403          	lw	s0,24(sp)
400002ec:	01c12083          	lw	ra,28(sp)
400002f0:	01412483          	lw	s1,20(sp)
400002f4:	01012903          	lw	s2,16(sp)
400002f8:	00c12983          	lw	s3,12(sp)
400002fc:	00812a03          	lw	s4,8(sp)
40000300:	40003537          	lui	a0,0x40003
40000304:	d8850513          	addi	a0,a0,-632 # 40002d88 <_etext+0x4a4>
40000308:	02010113          	addi	sp,sp,32
4000030c:	2210006f          	jal	zero,40000d2c <puts>
40000310:	40003537          	lui	a0,0x40003
40000314:	d8850513          	addi	a0,a0,-632 # 40002d88 <_etext+0x4a4>
40000318:	2150006f          	jal	zero,40000d2c <puts>

4000031c <hfunit_comp_float>:
4000031c:	fe010113          	addi	sp,sp,-32
40000320:	400037b7          	lui	a5,0x40003
40000324:	00812c23          	sw	s0,24(sp)
40000328:	e187a403          	lw	s0,-488(a5) # 40002e18 <test_counter>
4000032c:	00112e23          	sw	ra,28(sp)
40000330:	00912a23          	sw	s1,20(sp)
40000334:	00140413          	addi	s0,s0,1
40000338:	e087ac23          	sw	s0,-488(a5)
4000033c:	01212823          	sw	s2,16(sp)
40000340:	01312623          	sw	s3,12(sp)
40000344:	00060913          	addi	s2,a2,0
40000348:	400034b7          	lui	s1,0x40003
4000034c:	579000ef          	jal	ra,400010c4 <__subsf3>
40000350:	8e44a583          	lw	a1,-1820(s1) # 400028e4 <_etext>
40000354:	00050993          	addi	s3,a0,0
40000358:	56d000ef          	jal	ra,400010c4 <__subsf3>
4000035c:	00000593          	addi	a1,zero,0
40000360:	589000ef          	jal	ra,400010e8 <__ltsf2>
40000364:	00055e63          	bge	a0,zero,40000380 <hfunit_comp_float+0x64>
40000368:	8e44a583          	lw	a1,-1820(s1)
4000036c:	00098513          	addi	a0,s3,0
40000370:	429000ef          	jal	ra,40000f98 <__addsf3>
40000374:	00000593          	addi	a1,zero,0
40000378:	5a9000ef          	jal	ra,40001120 <__gtsf2>
4000037c:	04a04463          	blt	zero,a0,400003c4 <hfunit_comp_float+0xa8>
40000380:	40003737          	lui	a4,0x40003
40000384:	e1472783          	lw	a5,-492(a4) # 40002e14 <failed_tests>
40000388:	40003537          	lui	a0,0x40003
4000038c:	00090613          	addi	a2,s2,0
40000390:	00178793          	addi	a5,a5,1
40000394:	00040593          	addi	a1,s0,0
40000398:	8e850513          	addi	a0,a0,-1816 # 400028e8 <_etext+0x4>
4000039c:	e0f72a23          	sw	a5,-492(a4)
400003a0:	1dd000ef          	jal	ra,40000d7c <printf>
400003a4:	01c12083          	lw	ra,28(sp)
400003a8:	01812403          	lw	s0,24(sp)
400003ac:	01412483          	lw	s1,20(sp)
400003b0:	01012903          	lw	s2,16(sp)
400003b4:	00c12983          	lw	s3,12(sp)
400003b8:	00100513          	addi	a0,zero,1
400003bc:	02010113          	addi	sp,sp,32
400003c0:	00008067          	jalr	zero,0(ra)
400003c4:	40003537          	lui	a0,0x40003
400003c8:	00090613          	addi	a2,s2,0
400003cc:	00040593          	addi	a1,s0,0
400003d0:	90050513          	addi	a0,a0,-1792 # 40002900 <_etext+0x1c>
400003d4:	1a9000ef          	jal	ra,40000d7c <printf>
400003d8:	01c12083          	lw	ra,28(sp)
400003dc:	01812403          	lw	s0,24(sp)
400003e0:	01412483          	lw	s1,20(sp)
400003e4:	01012903          	lw	s2,16(sp)
400003e8:	00c12983          	lw	s3,12(sp)
400003ec:	00000513          	addi	a0,zero,0
400003f0:	02010113          	addi	sp,sp,32
400003f4:	00008067          	jalr	zero,0(ra)

400003f8 <dummy_handler>:
400003f8:	40003537          	lui	a0,0x40003
400003fc:	9a050513          	addi	a0,a0,-1632 # 400029a0 <_etext+0xbc>
40000400:	17d0006f          	jal	zero,40000d7c <printf>

40000404 <irq0_handler>:
40000404:	e10007b7          	lui	a5,0xe1000
40000408:	fd010113          	addi	sp,sp,-48
4000040c:	4007a783          	lw	a5,1024(a5) # e1000400 <_stack+0x91000404>
40000410:	01312e23          	sw	s3,28(sp)
40000414:	01412c23          	sw	s4,24(sp)
40000418:	400039b7          	lui	s3,0x40003
4000041c:	40003a37          	lui	s4,0x40003
40000420:	02912223          	sw	s1,36(sp)
40000424:	03212023          	sw	s2,32(sp)
40000428:	02112623          	sw	ra,44(sp)
4000042c:	02812423          	sw	s0,40(sp)
40000430:	01512a23          	sw	s5,20(sp)
40000434:	01612823          	sw	s6,16(sp)
40000438:	01712623          	sw	s7,12(sp)
4000043c:	01812423          	sw	s8,8(sp)
40000440:	01912223          	sw	s9,4(sp)
40000444:	02000913          	addi	s2,zero,32
40000448:	00100493          	addi	s1,zero,1
4000044c:	dd098993          	addi	s3,s3,-560 # 40002dd0 <timer_vector>
40000450:	da0a0a13          	addi	s4,s4,-608 # 40002da0 <gpio_vector>
40000454:	e10007b7          	lui	a5,0xe1000
40000458:	4007a703          	lw	a4,1024(a5) # e1000400 <_stack+0x91000404>
4000045c:	00149493          	slli	s1,s1,0x1
40000460:	0c070663          	beq	a4,zero,4000052c <irq0_handler+0x128>
40000464:	fff90913          	addi	s2,s2,-1
40000468:	0c090263          	beq	s2,zero,4000052c <irq0_handler+0x128>
4000046c:	4007a783          	lw	a5,1024(a5)
40000470:	02000713          	addi	a4,zero,32
40000474:	0097f7b3          	and	a5,a5,s1
40000478:	14f76463          	bltu	a4,a5,400005c0 <irq0_handler+0x1bc>
4000047c:	40003737          	lui	a4,0x40003
40000480:	00279793          	slli	a5,a5,0x2
40000484:	91c70713          	addi	a4,a4,-1764 # 4000291c <_etext+0x38>
40000488:	00e787b3          	add	a5,a5,a4
4000048c:	0007a783          	lw	a5,0(a5)
40000490:	00078067          	jalr	zero,0(a5)
40000494:	e10117b7          	lui	a5,0xe1011
40000498:	e1010737          	lui	a4,0xe1010
4000049c:	40072403          	lw	s0,1024(a4) # e1010400 <_stack+0x91010404>
400004a0:	8007a703          	lw	a4,-2048(a5) # e1010800 <_stack+0x91010804>
400004a4:	c007a783          	lw	a5,-1024(a5)
400004a8:	00000c93          	addi	s9,zero,0
400004ac:	00e44433          	xor	s0,s0,a4
400004b0:	00f47433          	and	s0,s0,a5
400004b4:	00100b13          	addi	s6,zero,1
400004b8:	e1014c37          	lui	s8,0xe1014
400004bc:	00200a93          	addi	s5,zero,2
400004c0:	e1015bb7          	lui	s7,0xe1015
400004c4:	00147793          	andi	a5,s0,1
400004c8:	04078463          	beq	a5,zero,40000510 <irq0_handler+0x10c>
400004cc:	156c8a63          	beq	s9,s6,40000620 <irq0_handler+0x21c>
400004d0:	120c8663          	beq	s9,zero,400005fc <irq0_handler+0x1f8>
400004d4:	115c8263          	beq	s9,s5,400005d8 <irq0_handler+0x1d4>
400004d8:	00300793          	addi	a5,zero,3
400004dc:	02fc9263          	bne	s9,a5,40000500 <irq0_handler+0xfc>
400004e0:	c20ba783          	lw	a5,-992(s7) # e1014c20 <_stack+0x91014c24>
400004e4:	c30ba603          	lw	a2,-976(s7)
400004e8:	c40ba683          	lw	a3,-960(s7)
400004ec:	c30ba703          	lw	a4,-976(s7)
400004f0:	00c7c7b3          	xor	a5,a5,a2
400004f4:	00d7f7b3          	and	a5,a5,a3
400004f8:	00e7c7b3          	xor	a5,a5,a4
400004fc:	c2fba823          	sw	a5,-976(s7)
40000500:	002c9793          	slli	a5,s9,0x2
40000504:	00fa07b3          	add	a5,s4,a5
40000508:	0007a783          	lw	a5,0(a5)
4000050c:	000780e7          	jalr	ra,0(a5)
40000510:	00145413          	srli	s0,s0,0x1
40000514:	001c8c93          	addi	s9,s9,1
40000518:	fa0416e3          	bne	s0,zero,400004c4 <irq0_handler+0xc0>
4000051c:	e10007b7          	lui	a5,0xe1000
40000520:	4007a703          	lw	a4,1024(a5) # e1000400 <_stack+0x91000404>
40000524:	00149493          	slli	s1,s1,0x1
40000528:	f2071ee3          	bne	a4,zero,40000464 <irq0_handler+0x60>
4000052c:	02c12083          	lw	ra,44(sp)
40000530:	02812403          	lw	s0,40(sp)
40000534:	02412483          	lw	s1,36(sp)
40000538:	02012903          	lw	s2,32(sp)
4000053c:	01c12983          	lw	s3,28(sp)
40000540:	01812a03          	lw	s4,24(sp)
40000544:	01412a83          	lw	s5,20(sp)
40000548:	01012b03          	lw	s6,16(sp)
4000054c:	00c12b83          	lw	s7,12(sp)
40000550:	00812c03          	lw	s8,8(sp)
40000554:	00412c83          	lw	s9,4(sp)
40000558:	03010113          	addi	sp,sp,48
4000055c:	00008067          	jalr	zero,0(ra)
40000560:	e10217b7          	lui	a5,0xe1021
40000564:	e1020737          	lui	a4,0xe1020
40000568:	40072403          	lw	s0,1024(a4) # e1020400 <_stack+0x91020404>
4000056c:	8007a703          	lw	a4,-2048(a5) # e1020800 <_stack+0x91020804>
40000570:	c007a783          	lw	a5,-1024(a5)
40000574:	00000a93          	addi	s5,zero,0
40000578:	00e44433          	xor	s0,s0,a4
4000057c:	00f47433          	and	s0,s0,a5
40000580:	e1021bb7          	lui	s7,0xe1021
40000584:	00100b13          	addi	s6,zero,1
40000588:	00147793          	andi	a5,s0,1
4000058c:	02078263          	beq	a5,zero,400005b0 <irq0_handler+0x1ac>
40000590:	800ba683          	lw	a3,-2048(s7) # e1020800 <_stack+0x91020804>
40000594:	002a9713          	slli	a4,s5,0x2
40000598:	00e98733          	add	a4,s3,a4
4000059c:	015b17b3          	sll	a5,s6,s5
400005a0:	00072703          	lw	a4,0(a4)
400005a4:	00d7c7b3          	xor	a5,a5,a3
400005a8:	80fba023          	sw	a5,-2048(s7)
400005ac:	000700e7          	jalr	ra,0(a4)
400005b0:	00145413          	srli	s0,s0,0x1
400005b4:	001a8a93          	addi	s5,s5,1
400005b8:	fc0418e3          	bne	s0,zero,40000588 <irq0_handler+0x184>
400005bc:	e99ff06f          	jal	zero,40000454 <irq0_handler+0x50>
400005c0:	e10007b7          	lui	a5,0xe1000
400005c4:	4007a583          	lw	a1,1024(a5) # e1000400 <_stack+0x91000404>
400005c8:	40003537          	lui	a0,0x40003
400005cc:	9d450513          	addi	a0,a0,-1580 # 400029d4 <_etext+0xf0>
400005d0:	7ac000ef          	jal	ra,40000d7c <printf>
400005d4:	e81ff06f          	jal	zero,40000454 <irq0_handler+0x50>
400005d8:	820ba783          	lw	a5,-2016(s7)
400005dc:	830ba603          	lw	a2,-2000(s7)
400005e0:	840ba683          	lw	a3,-1984(s7)
400005e4:	830ba703          	lw	a4,-2000(s7)
400005e8:	00c7c7b3          	xor	a5,a5,a2
400005ec:	00d7f7b3          	and	a5,a5,a3
400005f0:	00e7c7b3          	xor	a5,a5,a4
400005f4:	82fba823          	sw	a5,-2000(s7)
400005f8:	f09ff06f          	jal	zero,40000500 <irq0_handler+0xfc>
400005fc:	020c2783          	lw	a5,32(s8) # e1014020 <_stack+0x91014024>
40000600:	030c2603          	lw	a2,48(s8)
40000604:	040c2683          	lw	a3,64(s8)
40000608:	030c2703          	lw	a4,48(s8)
4000060c:	00c7c7b3          	xor	a5,a5,a2
40000610:	00d7f7b3          	and	a5,a5,a3
40000614:	00e7c7b3          	xor	a5,a5,a4
40000618:	02fc2823          	sw	a5,48(s8)
4000061c:	ee5ff06f          	jal	zero,40000500 <irq0_handler+0xfc>
40000620:	420c2783          	lw	a5,1056(s8)
40000624:	430c2603          	lw	a2,1072(s8)
40000628:	440c2683          	lw	a3,1088(s8)
4000062c:	430c2703          	lw	a4,1072(s8)
40000630:	00c7c7b3          	xor	a5,a5,a2
40000634:	00d7f7b3          	and	a5,a5,a3
40000638:	00e7c7b3          	xor	a5,a5,a4
4000063c:	42fc2823          	sw	a5,1072(s8)
40000640:	ec1ff06f          	jal	zero,40000500 <irq0_handler+0xfc>

40000644 <irq_enable>:
40000644:	e10347b7          	lui	a5,0xe1034
40000648:	1b200713          	addi	a4,zero,434
4000064c:	00e7a823          	sw	a4,16(a5) # e1034010 <_stack+0x91034014>
40000650:	0007a023          	sw	zero,0(a5)
40000654:	e1004637          	lui	a2,0xe1004
40000658:	00062783          	lw	a5,0(a2) # e1004000 <_stack+0x91004004>
4000065c:	f0000737          	lui	a4,0xf0000
40000660:	00100693          	addi	a3,zero,1
40000664:	1507e793          	ori	a5,a5,336
40000668:	00f62023          	sw	a5,0(a2)
4000066c:	02d72023          	sw	a3,32(a4) # f0000020 <_stack+0xa0000024>
40000670:	02d72823          	sw	a3,48(a4)
40000674:	00008067          	jalr	zero,0(ra)

40000678 <irq_handler>:
40000678:	ff010113          	addi	sp,sp,-16
4000067c:	00912223          	sw	s1,4(sp)
40000680:	400034b7          	lui	s1,0x40003
40000684:	00812423          	sw	s0,8(sp)
40000688:	00112623          	sw	ra,12(sp)
4000068c:	00050413          	addi	s0,a0,0
40000690:	db048493          	addi	s1,s1,-592 # 40002db0 <irq_vector>
40000694:	00147793          	andi	a5,s0,1
40000698:	00145413          	srli	s0,s0,0x1
4000069c:	00078863          	beq	a5,zero,400006ac <irq_handler+0x34>
400006a0:	0004a783          	lw	a5,0(s1)
400006a4:	00078463          	beq	a5,zero,400006ac <irq_handler+0x34>
400006a8:	000780e7          	jalr	ra,0(a5)
400006ac:	00448493          	addi	s1,s1,4
400006b0:	fe0412e3          	bne	s0,zero,40000694 <irq_handler+0x1c>
400006b4:	00c12083          	lw	ra,12(sp)
400006b8:	00812403          	lw	s0,8(sp)
400006bc:	00412483          	lw	s1,4(sp)
400006c0:	01010113          	addi	sp,sp,16
400006c4:	00008067          	jalr	zero,0(ra)

400006c8 <exception_handler>:
400006c8:	00068713          	addi	a4,a3,0
400006cc:	00060693          	addi	a3,a2,0
400006d0:	00058613          	addi	a2,a1,0
400006d4:	00050593          	addi	a1,a0,0
400006d8:	40003537          	lui	a0,0x40003
400006dc:	ff010113          	addi	sp,sp,-16
400006e0:	9a850513          	addi	a0,a0,-1624 # 400029a8 <_etext+0xc4>
400006e4:	00112623          	sw	ra,12(sp)
400006e8:	694000ef          	jal	ra,40000d7c <printf>
400006ec:	00c12083          	lw	ra,12(sp)
400006f0:	fff00513          	addi	a0,zero,-1
400006f4:	01010113          	addi	sp,sp,16
400006f8:	00008067          	jalr	zero,0(ra)

400006fc <printchar.part.0>:
400006fc:	e1030737          	lui	a4,0xe1030
40000700:	40072783          	lw	a5,1024(a4) # e1030400 <_stack+0x91030404>
40000704:	0027f793          	andi	a5,a5,2
40000708:	fe079ce3          	bne	a5,zero,40000700 <printchar.part.0+0x4>
4000070c:	e10347b7          	lui	a5,0xe1034
40000710:	00a7a023          	sw	a0,0(a5) # e1034000 <_stack+0x91034004>
40000714:	00008067          	jalr	zero,0(ra)

40000718 <vsprintf>:
40000718:	fb010113          	addi	sp,sp,-80
4000071c:	04812423          	sw	s0,72(sp)
40000720:	04112623          	sw	ra,76(sp)
40000724:	04912223          	sw	s1,68(sp)
40000728:	05212023          	sw	s2,64(sp)
4000072c:	03312e23          	sw	s3,60(sp)
40000730:	03412c23          	sw	s4,56(sp)
40000734:	03512a23          	sw	s5,52(sp)
40000738:	03612823          	sw	s6,48(sp)
4000073c:	03712623          	sw	s7,44(sp)
40000740:	03812423          	sw	s8,40(sp)
40000744:	03912223          	sw	s9,36(sp)
40000748:	0005c783          	lbu	a5,0(a1)
4000074c:	00c12223          	sw	a2,4(sp)
40000750:	00050413          	addi	s0,a0,0
40000754:	1c078c63          	beq	a5,zero,4000092c <vsprintf+0x214>
40000758:	400039b7          	lui	s3,0x40003
4000075c:	9fc98713          	addi	a4,s3,-1540 # 400029fc <_etext+0x118>
40000760:	40003937          	lui	s2,0x40003
40000764:	00e12623          	sw	a4,12(sp)
40000768:	ad890713          	addi	a4,s2,-1320 # 40002ad8 <_etext+0x1f4>
4000076c:	00058a13          	addi	s4,a1,0
40000770:	00e12423          	sw	a4,8(sp)
40000774:	0300006f          	jal	zero,400007a4 <vsprintf+0x8c>
40000778:	2e040a63          	beq	s0,zero,40000a6c <vsprintf+0x354>
4000077c:	00042683          	lw	a3,0(s0)
40000780:	000b8713          	addi	a4,s7,0
40000784:	000a0b93          	addi	s7,s4,0
40000788:	00f68023          	sb	a5,0(a3)
4000078c:	00042783          	lw	a5,0(s0)
40000790:	00070a13          	addi	s4,a4,0
40000794:	00178793          	addi	a5,a5,1
40000798:	00f42023          	sw	a5,0(s0)
4000079c:	001bc783          	lbu	a5,1(s7)
400007a0:	18078663          	beq	a5,zero,4000092c <vsprintf+0x214>
400007a4:	02500713          	addi	a4,zero,37
400007a8:	001a0b93          	addi	s7,s4,1
400007ac:	fce796e3          	bne	a5,a4,40000778 <vsprintf+0x60>
400007b0:	001a4783          	lbu	a5,1(s4)
400007b4:	03000713          	addi	a4,zero,48
400007b8:	02000993          	addi	s3,zero,32
400007bc:	00e79863          	bne	a5,a4,400007cc <vsprintf+0xb4>
400007c0:	002a4783          	lbu	a5,2(s4)
400007c4:	002a0b93          	addi	s7,s4,2
400007c8:	03000993          	addi	s3,zero,48
400007cc:	fd078713          	addi	a4,a5,-48
400007d0:	0ff77713          	andi	a4,a4,255
400007d4:	00900613          	addi	a2,zero,9
400007d8:	fff00b13          	addi	s6,zero,-1
400007dc:	2ae67463          	bgeu	a2,a4,40000a84 <vsprintf+0x36c>
400007e0:	06c00713          	addi	a4,zero,108
400007e4:	001b8a13          	addi	s4,s7,1
400007e8:	00e79a63          	bne	a5,a4,400007fc <vsprintf+0xe4>
400007ec:	002b8713          	addi	a4,s7,2
400007f0:	001bc783          	lbu	a5,1(s7)
400007f4:	000a0b93          	addi	s7,s4,0
400007f8:	00070a13          	addi	s4,a4,0
400007fc:	fa878793          	addi	a5,a5,-88
40000800:	0ff7f793          	andi	a5,a5,255
40000804:	02000713          	addi	a4,zero,32
40000808:	f8f76ae3          	bltu	a4,a5,4000079c <vsprintf+0x84>
4000080c:	00c12703          	lw	a4,12(sp)
40000810:	00279793          	slli	a5,a5,0x2
40000814:	00e787b3          	add	a5,a5,a4
40000818:	0007a783          	lw	a5,0(a5)
4000081c:	00078067          	jalr	zero,0(a5)
40000820:	00412783          	lw	a5,4(sp)
40000824:	00a00c93          	addi	s9,zero,10
40000828:	0007a903          	lw	s2,0(a5)
4000082c:	00478793          	addi	a5,a5,4
40000830:	00f12223          	sw	a5,4(sp)
40000834:	18091663          	bne	s2,zero,400009c0 <vsprintf+0x2a8>
40000838:	03000793          	addi	a5,zero,48
4000083c:	00100a93          	addi	s5,zero,1
40000840:	00f10823          	sb	a5,16(sp)
40000844:	03000493          	addi	s1,zero,48
40000848:	00000c13          	addi	s8,zero,0
4000084c:	415b0ab3          	sub	s5,s6,s5
40000850:	03505263          	bge	zero,s5,40000874 <vsprintf+0x15c>
40000854:	20040463          	beq	s0,zero,40000a5c <vsprintf+0x344>
40000858:	00042783          	lw	a5,0(s0)
4000085c:	fffa8a93          	addi	s5,s5,-1
40000860:	01378023          	sb	s3,0(a5)
40000864:	00042783          	lw	a5,0(s0)
40000868:	00178793          	addi	a5,a5,1
4000086c:	00f42023          	sw	a5,0(s0)
40000870:	ff5042e3          	blt	zero,s5,40000854 <vsprintf+0x13c>
40000874:	02040a63          	beq	s0,zero,400008a8 <vsprintf+0x190>
40000878:	00042783          	lw	a5,0(s0)
4000087c:	00978023          	sb	s1,0(a5)
40000880:	00042783          	lw	a5,0(s0)
40000884:	00178793          	addi	a5,a5,1
40000888:	00f42023          	sw	a5,0(s0)
4000088c:	fffc0793          	addi	a5,s8,-1
40000890:	f18056e3          	bge	zero,s8,4000079c <vsprintf+0x84>
40000894:	01010713          	addi	a4,sp,16
40000898:	00f70733          	add	a4,a4,a5
4000089c:	00074483          	lbu	s1,0(a4)
400008a0:	00078c13          	addi	s8,a5,0
400008a4:	fc041ae3          	bne	s0,zero,40000878 <vsprintf+0x160>
400008a8:	fe0482e3          	beq	s1,zero,4000088c <vsprintf+0x174>
400008ac:	00048513          	addi	a0,s1,0
400008b0:	e4dff0ef          	jal	ra,400006fc <printchar.part.0>
400008b4:	fd9ff06f          	jal	zero,4000088c <vsprintf+0x174>
400008b8:	00412783          	lw	a5,4(sp)
400008bc:	0007aa83          	lw	s5,0(a5)
400008c0:	00478493          	addi	s1,a5,4
400008c4:	1e0a8863          	beq	s5,zero,40000ab4 <vsprintf+0x39c>
400008c8:	000ac503          	lbu	a0,0(s5)
400008cc:	02050863          	beq	a0,zero,400008fc <vsprintf+0x1e4>
400008d0:	040b0863          	beq	s6,zero,40000920 <vsprintf+0x208>
400008d4:	20040263          	beq	s0,zero,40000ad8 <vsprintf+0x3c0>
400008d8:	00042783          	lw	a5,0(s0)
400008dc:	00a78023          	sb	a0,0(a5)
400008e0:	00042783          	lw	a5,0(s0)
400008e4:	00178793          	addi	a5,a5,1
400008e8:	00f42023          	sw	a5,0(s0)
400008ec:	001a8a93          	addi	s5,s5,1
400008f0:	000ac503          	lbu	a0,0(s5)
400008f4:	fffb0b13          	addi	s6,s6,-1
400008f8:	fc051ce3          	bne	a0,zero,400008d0 <vsprintf+0x1b8>
400008fc:	03605263          	bge	zero,s6,40000920 <vsprintf+0x208>
40000900:	1e040063          	beq	s0,zero,40000ae0 <vsprintf+0x3c8>
40000904:	00042783          	lw	a5,0(s0)
40000908:	fffb0b13          	addi	s6,s6,-1
4000090c:	01378023          	sb	s3,0(a5)
40000910:	00042783          	lw	a5,0(s0)
40000914:	00178793          	addi	a5,a5,1
40000918:	00f42023          	sw	a5,0(s0)
4000091c:	ff6042e3          	blt	zero,s6,40000900 <vsprintf+0x1e8>
40000920:	001bc783          	lbu	a5,1(s7)
40000924:	00912223          	sw	s1,4(sp)
40000928:	e6079ee3          	bne	a5,zero,400007a4 <vsprintf+0x8c>
4000092c:	00040c63          	beq	s0,zero,40000944 <vsprintf+0x22c>
40000930:	00042783          	lw	a5,0(s0)
40000934:	00078023          	sb	zero,0(a5)
40000938:	00042783          	lw	a5,0(s0)
4000093c:	00178793          	addi	a5,a5,1
40000940:	00f42023          	sw	a5,0(s0)
40000944:	04c12083          	lw	ra,76(sp)
40000948:	04812403          	lw	s0,72(sp)
4000094c:	04412483          	lw	s1,68(sp)
40000950:	04012903          	lw	s2,64(sp)
40000954:	03c12983          	lw	s3,60(sp)
40000958:	03812a03          	lw	s4,56(sp)
4000095c:	03412a83          	lw	s5,52(sp)
40000960:	03012b03          	lw	s6,48(sp)
40000964:	02c12b83          	lw	s7,44(sp)
40000968:	02812c03          	lw	s8,40(sp)
4000096c:	02412c83          	lw	s9,36(sp)
40000970:	00000513          	addi	a0,zero,0
40000974:	05010113          	addi	sp,sp,80
40000978:	00008067          	jalr	zero,0(ra)
4000097c:	00412783          	lw	a5,4(sp)
40000980:	00a00c93          	addi	s9,zero,10
40000984:	0007a903          	lw	s2,0(a5)
40000988:	00478a93          	addi	s5,a5,4
4000098c:	01512223          	sw	s5,4(sp)
40000990:	ea0952e3          	bge	s2,zero,40000834 <vsprintf+0x11c>
40000994:	41200933          	sub	s2,zero,s2
40000998:	14040c63          	beq	s0,zero,40000af0 <vsprintf+0x3d8>
4000099c:	00042703          	lw	a4,0(s0)
400009a0:	02d00613          	addi	a2,zero,45
400009a4:	00c70023          	sb	a2,0(a4)
400009a8:	00042703          	lw	a4,0(s0)
400009ac:	00170713          	addi	a4,a4,1
400009b0:	00e42023          	sw	a4,0(s0)
400009b4:	fffb0b13          	addi	s6,s6,-1
400009b8:	01512223          	sw	s5,4(sp)
400009bc:	00a00c93          	addi	s9,zero,10
400009c0:	00000c13          	addi	s8,zero,0
400009c4:	0080006f          	jal	zero,400009cc <vsprintf+0x2b4>
400009c8:	000a8c13          	addi	s8,s5,0
400009cc:	000c8593          	addi	a1,s9,0
400009d0:	00090513          	addi	a0,s2,0
400009d4:	570000ef          	jal	ra,40000f44 <__umodsi3>
400009d8:	00812783          	lw	a5,8(sp)
400009dc:	001c0a93          	addi	s5,s8,1
400009e0:	000c8593          	addi	a1,s9,0
400009e4:	00a78533          	add	a0,a5,a0
400009e8:	00054483          	lbu	s1,0(a0)
400009ec:	01010793          	addi	a5,sp,16
400009f0:	015787b3          	add	a5,a5,s5
400009f4:	00090513          	addi	a0,s2,0
400009f8:	fe978fa3          	sb	s1,-1(a5)
400009fc:	01212023          	sw	s2,0(sp)
40000a00:	4dc000ef          	jal	ra,40000edc <__udivsi3>
40000a04:	00012603          	lw	a2,0(sp)
40000a08:	00050913          	addi	s2,a0,0
40000a0c:	fb967ee3          	bgeu	a2,s9,400009c8 <vsprintf+0x2b0>
40000a10:	415b0ab3          	sub	s5,s6,s5
40000a14:	e3dff06f          	jal	zero,40000850 <vsprintf+0x138>
40000a18:	00412783          	lw	a5,4(sp)
40000a1c:	00478713          	addi	a4,a5,4
40000a20:	0007a783          	lw	a5,0(a5)
40000a24:	0a040063          	beq	s0,zero,40000ac4 <vsprintf+0x3ac>
40000a28:	00042683          	lw	a3,0(s0)
40000a2c:	00e12223          	sw	a4,4(sp)
40000a30:	00f68023          	sb	a5,0(a3)
40000a34:	00042783          	lw	a5,0(s0)
40000a38:	00178793          	addi	a5,a5,1
40000a3c:	00f42023          	sw	a5,0(s0)
40000a40:	d5dff06f          	jal	zero,4000079c <vsprintf+0x84>
40000a44:	00412783          	lw	a5,4(sp)
40000a48:	01000c93          	addi	s9,zero,16
40000a4c:	0007a903          	lw	s2,0(a5)
40000a50:	00478793          	addi	a5,a5,4
40000a54:	00f12223          	sw	a5,4(sp)
40000a58:	dddff06f          	jal	zero,40000834 <vsprintf+0x11c>
40000a5c:	00098513          	addi	a0,s3,0
40000a60:	c9dff0ef          	jal	ra,400006fc <printchar.part.0>
40000a64:	fffa8a93          	addi	s5,s5,-1
40000a68:	e09ff06f          	jal	zero,40000870 <vsprintf+0x158>
40000a6c:	00078513          	addi	a0,a5,0
40000a70:	c8dff0ef          	jal	ra,400006fc <printchar.part.0>
40000a74:	000b8793          	addi	a5,s7,0
40000a78:	000a0b93          	addi	s7,s4,0
40000a7c:	00078a13          	addi	s4,a5,0
40000a80:	d1dff06f          	jal	zero,4000079c <vsprintf+0x84>
40000a84:	00000b13          	addi	s6,zero,0
40000a88:	002b1713          	slli	a4,s6,0x2
40000a8c:	01670733          	add	a4,a4,s6
40000a90:	001b8b93          	addi	s7,s7,1
40000a94:	00171713          	slli	a4,a4,0x1
40000a98:	00f70733          	add	a4,a4,a5
40000a9c:	000bc783          	lbu	a5,0(s7)
40000aa0:	fd070b13          	addi	s6,a4,-48
40000aa4:	fd078713          	addi	a4,a5,-48
40000aa8:	0ff77713          	andi	a4,a4,255
40000aac:	fce67ee3          	bgeu	a2,a4,40000a88 <vsprintf+0x370>
40000ab0:	d31ff06f          	jal	zero,400007e0 <vsprintf+0xc8>
40000ab4:	40003ab7          	lui	s5,0x40003
40000ab8:	ad0a8a93          	addi	s5,s5,-1328 # 40002ad0 <_etext+0x1ec>
40000abc:	03c00513          	addi	a0,zero,60
40000ac0:	e11ff06f          	jal	zero,400008d0 <vsprintf+0x1b8>
40000ac4:	0ff7f513          	andi	a0,a5,255
40000ac8:	00e12223          	sw	a4,4(sp)
40000acc:	cc0508e3          	beq	a0,zero,4000079c <vsprintf+0x84>
40000ad0:	c2dff0ef          	jal	ra,400006fc <printchar.part.0>
40000ad4:	cc9ff06f          	jal	zero,4000079c <vsprintf+0x84>
40000ad8:	c25ff0ef          	jal	ra,400006fc <printchar.part.0>
40000adc:	e11ff06f          	jal	zero,400008ec <vsprintf+0x1d4>
40000ae0:	00098513          	addi	a0,s3,0
40000ae4:	c19ff0ef          	jal	ra,400006fc <printchar.part.0>
40000ae8:	fffb0b13          	addi	s6,s6,-1
40000aec:	e31ff06f          	jal	zero,4000091c <vsprintf+0x204>
40000af0:	02d00513          	addi	a0,zero,45
40000af4:	c09ff0ef          	jal	ra,400006fc <printchar.part.0>
40000af8:	ebdff06f          	jal	zero,400009b4 <vsprintf+0x29c>

40000afc <itoa.part.1>:
40000afc:	fe010113          	addi	sp,sp,-32
40000b00:	01512223          	sw	s5,4(sp)
40000b04:	40003ab7          	lui	s5,0x40003
40000b08:	00812c23          	sw	s0,24(sp)
40000b0c:	00912a23          	sw	s1,20(sp)
40000b10:	01212823          	sw	s2,16(sp)
40000b14:	01412423          	sw	s4,8(sp)
40000b18:	00112e23          	sw	ra,28(sp)
40000b1c:	01312623          	sw	s3,12(sp)
40000b20:	00058493          	addi	s1,a1,0
40000b24:	00050913          	addi	s2,a0,0
40000b28:	00060a13          	addi	s4,a2,0
40000b2c:	00058413          	addi	s0,a1,0
40000b30:	a88a8a93          	addi	s5,s5,-1400 # 40002a88 <_etext+0x1a4>
40000b34:	00c0006f          	jal	zero,40000b40 <itoa.part.1+0x44>
40000b38:	00078413          	addi	s0,a5,0
40000b3c:	00098913          	addi	s2,s3,0
40000b40:	000a0593          	addi	a1,s4,0
40000b44:	00090513          	addi	a0,s2,0
40000b48:	2ac000ef          	jal	ra,40000df4 <__divsi3>
40000b4c:	00050993          	addi	s3,a0,0
40000b50:	000a0593          	addi	a1,s4,0
40000b54:	00090513          	addi	a0,s2,0
40000b58:	318000ef          	jal	ra,40000e70 <__modsi3>
40000b5c:	00aa8533          	add	a0,s5,a0
40000b60:	02354703          	lbu	a4,35(a0)
40000b64:	00140793          	addi	a5,s0,1
40000b68:	fee78fa3          	sb	a4,-1(a5)
40000b6c:	fc0996e3          	bne	s3,zero,40000b38 <itoa.part.1+0x3c>
40000b70:	00095c63          	bge	s2,zero,40000b88 <itoa.part.1+0x8c>
40000b74:	00240713          	addi	a4,s0,2
40000b78:	02d00693          	addi	a3,zero,45
40000b7c:	00d78023          	sb	a3,0(a5)
40000b80:	00078413          	addi	s0,a5,0
40000b84:	00070793          	addi	a5,a4,0
40000b88:	00078023          	sb	zero,0(a5)
40000b8c:	0284f063          	bgeu	s1,s0,40000bac <itoa.part.1+0xb0>
40000b90:	0004c703          	lbu	a4,0(s1)
40000b94:	00044783          	lbu	a5,0(s0)
40000b98:	fff40413          	addi	s0,s0,-1
40000b9c:	00148493          	addi	s1,s1,1
40000ba0:	00e400a3          	sb	a4,1(s0)
40000ba4:	fef48fa3          	sb	a5,-1(s1)
40000ba8:	fe84e4e3          	bltu	s1,s0,40000b90 <itoa.part.1+0x94>
40000bac:	01c12083          	lw	ra,28(sp)
40000bb0:	01812403          	lw	s0,24(sp)
40000bb4:	01412483          	lw	s1,20(sp)
40000bb8:	01012903          	lw	s2,16(sp)
40000bbc:	00c12983          	lw	s3,12(sp)
40000bc0:	00812a03          	lw	s4,8(sp)
40000bc4:	00412a83          	lw	s5,4(sp)
40000bc8:	02010113          	addi	sp,sp,32
40000bcc:	00008067          	jalr	zero,0(ra)

40000bd0 <ftoa>:
40000bd0:	ff010113          	addi	sp,sp,-16
40000bd4:	00912223          	sw	s1,4(sp)
40000bd8:	00058493          	addi	s1,a1,0
40000bdc:	00000593          	addi	a1,zero,0
40000be0:	00812423          	sw	s0,8(sp)
40000be4:	01212023          	sw	s2,0(sp)
40000be8:	00112623          	sw	ra,12(sp)
40000bec:	00050413          	addi	s0,a0,0
40000bf0:	00060913          	addi	s2,a2,0
40000bf4:	4f4000ef          	jal	ra,400010e8 <__ltsf2>
40000bf8:	00055c63          	bge	a0,zero,40000c10 <ftoa+0x40>
40000bfc:	02d00793          	addi	a5,zero,45
40000c00:	00f48023          	sb	a5,0(s1)
40000c04:	800007b7          	lui	a5,0x80000
40000c08:	0087c433          	xor	s0,a5,s0
40000c0c:	00148493          	addi	s1,s1,1
40000c10:	41745793          	srai	a5,s0,0x17
40000c14:	f8178713          	addi	a4,a5,-127 # 7fffff81 <_stack+0x2fffff85>
40000c18:	01e00693          	addi	a3,zero,30
40000c1c:	10e6c463          	blt	a3,a4,40000d24 <ftoa+0x154>
40000c20:	fe900693          	addi	a3,zero,-23
40000c24:	0ad74263          	blt	a4,a3,40000cc8 <ftoa+0xf8>
40000c28:	00800537          	lui	a0,0x800
40000c2c:	fff50693          	addi	a3,a0,-1 # 7fffff <_entry-0x3f800001>
40000c30:	00d47433          	and	s0,s0,a3
40000c34:	01600693          	addi	a3,zero,22
40000c38:	00a46533          	or	a0,s0,a0
40000c3c:	08e6da63          	bge	a3,a4,40000cd0 <ftoa+0x100>
40000c40:	f6a78793          	addi	a5,a5,-150
40000c44:	00f51533          	sll	a0,a0,a5
40000c48:	00000413          	addi	s0,zero,0
40000c4c:	0a051463          	bne	a0,zero,40000cf4 <ftoa+0x124>
40000c50:	03000793          	addi	a5,zero,48
40000c54:	00f48023          	sb	a5,0(s1)
40000c58:	00148493          	addi	s1,s1,1
40000c5c:	02e00793          	addi	a5,zero,46
40000c60:	00f48023          	sb	a5,0(s1)
40000c64:	00148613          	addi	a2,s1,1
40000c68:	05205063          	bge	zero,s2,40000ca8 <ftoa+0xd8>
40000c6c:	00190793          	addi	a5,s2,1
40000c70:	010006b7          	lui	a3,0x1000
40000c74:	00f484b3          	add	s1,s1,a5
40000c78:	00060713          	addi	a4,a2,0
40000c7c:	fff68693          	addi	a3,a3,-1 # ffffff <_entry-0x3f000001>
40000c80:	00341793          	slli	a5,s0,0x3
40000c84:	00141413          	slli	s0,s0,0x1
40000c88:	00878433          	add	s0,a5,s0
40000c8c:	41845793          	srai	a5,s0,0x18
40000c90:	03078793          	addi	a5,a5,48
40000c94:	00f70023          	sb	a5,0(a4)
40000c98:	00170713          	addi	a4,a4,1
40000c9c:	00d47433          	and	s0,s0,a3
40000ca0:	fe9710e3          	bne	a4,s1,40000c80 <ftoa+0xb0>
40000ca4:	01260633          	add	a2,a2,s2
40000ca8:	00060023          	sb	zero,0(a2)
40000cac:	00000513          	addi	a0,zero,0
40000cb0:	00c12083          	lw	ra,12(sp)
40000cb4:	00812403          	lw	s0,8(sp)
40000cb8:	00412483          	lw	s1,4(sp)
40000cbc:	00012903          	lw	s2,0(sp)
40000cc0:	01010113          	addi	sp,sp,16
40000cc4:	00008067          	jalr	zero,0(ra)
40000cc8:	00000413          	addi	s0,zero,0
40000ccc:	f85ff06f          	jal	zero,40000c50 <ftoa+0x80>
40000cd0:	04074463          	blt	a4,zero,40000d18 <ftoa+0x148>
40000cd4:	f8278413          	addi	s0,a5,-126
40000cd8:	01700793          	addi	a5,zero,23
40000cdc:	40e787b3          	sub	a5,a5,a4
40000ce0:	00851733          	sll	a4,a0,s0
40000ce4:	01000437          	lui	s0,0x1000
40000ce8:	fff40413          	addi	s0,s0,-1 # ffffff <_entry-0x3f000001>
40000cec:	40f55533          	sra	a0,a0,a5
40000cf0:	00877433          	and	s0,a4,s0
40000cf4:	00a00613          	addi	a2,zero,10
40000cf8:	00048593          	addi	a1,s1,0
40000cfc:	e01ff0ef          	jal	ra,40000afc <itoa.part.1>
40000d00:	0004c783          	lbu	a5,0(s1)
40000d04:	f4078ce3          	beq	a5,zero,40000c5c <ftoa+0x8c>
40000d08:	00148493          	addi	s1,s1,1
40000d0c:	0004c783          	lbu	a5,0(s1)
40000d10:	fe079ce3          	bne	a5,zero,40000d08 <ftoa+0x138>
40000d14:	f49ff06f          	jal	zero,40000c5c <ftoa+0x8c>
40000d18:	fff74713          	xori	a4,a4,-1
40000d1c:	40e55433          	sra	s0,a0,a4
40000d20:	f31ff06f          	jal	zero,40000c50 <ftoa+0x80>
40000d24:	fff00513          	addi	a0,zero,-1
40000d28:	f89ff06f          	jal	zero,40000cb0 <ftoa+0xe0>

40000d2c <puts>:
40000d2c:	00054683          	lbu	a3,0(a0)
40000d30:	02068463          	beq	a3,zero,40000d58 <puts+0x2c>
40000d34:	e1030737          	lui	a4,0xe1030
40000d38:	e1034637          	lui	a2,0xe1034
40000d3c:	00150513          	addi	a0,a0,1
40000d40:	40072783          	lw	a5,1024(a4) # e1030400 <_stack+0x91030404>
40000d44:	0027f793          	andi	a5,a5,2
40000d48:	fe079ce3          	bne	a5,zero,40000d40 <puts+0x14>
40000d4c:	00d62023          	sw	a3,0(a2) # e1034000 <_stack+0x91034004>
40000d50:	00054683          	lbu	a3,0(a0)
40000d54:	fe0694e3          	bne	a3,zero,40000d3c <puts+0x10>
40000d58:	e1030737          	lui	a4,0xe1030
40000d5c:	40072783          	lw	a5,1024(a4) # e1030400 <_stack+0x91030404>
40000d60:	0027f793          	andi	a5,a5,2
40000d64:	fe079ce3          	bne	a5,zero,40000d5c <puts+0x30>
40000d68:	e10347b7          	lui	a5,0xe1034
40000d6c:	00a00713          	addi	a4,zero,10
40000d70:	00e7a023          	sw	a4,0(a5) # e1034000 <_stack+0x91034004>
40000d74:	00000513          	addi	a0,zero,0
40000d78:	00008067          	jalr	zero,0(ra)

40000d7c <printf>:
40000d7c:	fc010113          	addi	sp,sp,-64
40000d80:	02410313          	addi	t1,sp,36
40000d84:	02b12223          	sw	a1,36(sp)
40000d88:	02c12423          	sw	a2,40(sp)
40000d8c:	00050593          	addi	a1,a0,0
40000d90:	00030613          	addi	a2,t1,0
40000d94:	00000513          	addi	a0,zero,0
40000d98:	00112e23          	sw	ra,28(sp)
40000d9c:	02d12623          	sw	a3,44(sp)
40000da0:	02e12823          	sw	a4,48(sp)
40000da4:	02f12a23          	sw	a5,52(sp)
40000da8:	03012c23          	sw	a6,56(sp)
40000dac:	03112e23          	sw	a7,60(sp)
40000db0:	00612623          	sw	t1,12(sp)
40000db4:	965ff0ef          	jal	ra,40000718 <vsprintf>
40000db8:	01c12083          	lw	ra,28(sp)
40000dbc:	04010113          	addi	sp,sp,64
40000dc0:	00008067          	jalr	zero,0(ra)

40000dc4 <__mulsi3>:
40000dc4:	02058463          	beq	a1,zero,40000dec <__mulsi3+0x28>
40000dc8:	00000713          	addi	a4,zero,0
40000dcc:	0015f793          	andi	a5,a1,1
40000dd0:	0015d593          	srli	a1,a1,0x1
40000dd4:	00078463          	beq	a5,zero,40000ddc <__mulsi3+0x18>
40000dd8:	00a70733          	add	a4,a4,a0
40000ddc:	00151513          	slli	a0,a0,0x1
40000de0:	fe0596e3          	bne	a1,zero,40000dcc <__mulsi3+0x8>
40000de4:	00070513          	addi	a0,a4,0
40000de8:	00008067          	jalr	zero,0(ra)
40000dec:	00000513          	addi	a0,zero,0
40000df0:	00008067          	jalr	zero,0(ra)

40000df4 <__divsi3>:
40000df4:	00000613          	addi	a2,zero,0
40000df8:	06054263          	blt	a0,zero,40000e5c <__divsi3+0x68>
40000dfc:	0005d663          	bge	a1,zero,40000e08 <__divsi3+0x14>
40000e00:	40b005b3          	sub	a1,zero,a1
40000e04:	00164613          	xori	a2,a2,1
40000e08:	00050693          	addi	a3,a0,0
40000e0c:	02000713          	addi	a4,zero,32
40000e10:	00100793          	addi	a5,zero,1
40000e14:	00a5e663          	bltu	a1,a0,40000e20 <__divsi3+0x2c>
40000e18:	01c0006f          	jal	zero,40000e34 <__divsi3+0x40>
40000e1c:	04070663          	beq	a4,zero,40000e68 <__divsi3+0x74>
40000e20:	00159593          	slli	a1,a1,0x1
40000e24:	fff70713          	addi	a4,a4,-1
40000e28:	00179793          	slli	a5,a5,0x1
40000e2c:	fea5e8e3          	bltu	a1,a0,40000e1c <__divsi3+0x28>
40000e30:	02078c63          	beq	a5,zero,40000e68 <__divsi3+0x74>
40000e34:	00000513          	addi	a0,zero,0
40000e38:	00b6e663          	bltu	a3,a1,40000e44 <__divsi3+0x50>
40000e3c:	40b686b3          	sub	a3,a3,a1
40000e40:	00f56533          	or	a0,a0,a5
40000e44:	0017d793          	srli	a5,a5,0x1
40000e48:	0015d593          	srli	a1,a1,0x1
40000e4c:	fe0796e3          	bne	a5,zero,40000e38 <__divsi3+0x44>
40000e50:	00060463          	beq	a2,zero,40000e58 <__divsi3+0x64>
40000e54:	40a00533          	sub	a0,zero,a0
40000e58:	00008067          	jalr	zero,0(ra)
40000e5c:	40a00533          	sub	a0,zero,a0
40000e60:	00100613          	addi	a2,zero,1
40000e64:	f99ff06f          	jal	zero,40000dfc <__divsi3+0x8>
40000e68:	00000513          	addi	a0,zero,0
40000e6c:	fe5ff06f          	jal	zero,40000e50 <__divsi3+0x5c>

40000e70 <__modsi3>:
40000e70:	00000613          	addi	a2,zero,0
40000e74:	00055663          	bge	a0,zero,40000e80 <__modsi3+0x10>
40000e78:	40a00533          	sub	a0,zero,a0
40000e7c:	00100613          	addi	a2,zero,1
40000e80:	41f5d793          	srai	a5,a1,0x1f
40000e84:	00b7c5b3          	xor	a1,a5,a1
40000e88:	40f585b3          	sub	a1,a1,a5
40000e8c:	00050693          	addi	a3,a0,0
40000e90:	02000713          	addi	a4,zero,32
40000e94:	00100793          	addi	a5,zero,1
40000e98:	00a5e663          	bltu	a1,a0,40000ea4 <__modsi3+0x34>
40000e9c:	01c0006f          	jal	zero,40000eb8 <__modsi3+0x48>
40000ea0:	02070863          	beq	a4,zero,40000ed0 <__modsi3+0x60>
40000ea4:	00159593          	slli	a1,a1,0x1
40000ea8:	fff70713          	addi	a4,a4,-1
40000eac:	00179793          	slli	a5,a5,0x1
40000eb0:	fea5e8e3          	bltu	a1,a0,40000ea0 <__modsi3+0x30>
40000eb4:	00078e63          	beq	a5,zero,40000ed0 <__modsi3+0x60>
40000eb8:	0017d793          	srli	a5,a5,0x1
40000ebc:	00b6e463          	bltu	a3,a1,40000ec4 <__modsi3+0x54>
40000ec0:	40b686b3          	sub	a3,a3,a1
40000ec4:	0015d593          	srli	a1,a1,0x1
40000ec8:	fe0798e3          	bne	a5,zero,40000eb8 <__modsi3+0x48>
40000ecc:	00068513          	addi	a0,a3,0
40000ed0:	00060463          	beq	a2,zero,40000ed8 <__modsi3+0x68>
40000ed4:	40a00533          	sub	a0,zero,a0
40000ed8:	00008067          	jalr	zero,0(ra)

40000edc <__udivsi3>:
40000edc:	00050693          	addi	a3,a0,0
40000ee0:	04a5fc63          	bgeu	a1,a0,40000f38 <__udivsi3+0x5c>
40000ee4:	0405ca63          	blt	a1,zero,40000f38 <__udivsi3+0x5c>
40000ee8:	02000713          	addi	a4,zero,32
40000eec:	00100793          	addi	a5,zero,1
40000ef0:	00c0006f          	jal	zero,40000efc <__udivsi3+0x20>
40000ef4:	02070e63          	beq	a4,zero,40000f30 <__udivsi3+0x54>
40000ef8:	0005cc63          	blt	a1,zero,40000f10 <__udivsi3+0x34>
40000efc:	00159593          	slli	a1,a1,0x1
40000f00:	fff70713          	addi	a4,a4,-1
40000f04:	00179793          	slli	a5,a5,0x1
40000f08:	fed5e6e3          	bltu	a1,a3,40000ef4 <__udivsi3+0x18>
40000f0c:	02078263          	beq	a5,zero,40000f30 <__udivsi3+0x54>
40000f10:	00000513          	addi	a0,zero,0
40000f14:	00b6e663          	bltu	a3,a1,40000f20 <__udivsi3+0x44>
40000f18:	40b686b3          	sub	a3,a3,a1
40000f1c:	00f56533          	or	a0,a0,a5
40000f20:	0017d793          	srli	a5,a5,0x1
40000f24:	0015d593          	srli	a1,a1,0x1
40000f28:	fe0796e3          	bne	a5,zero,40000f14 <__udivsi3+0x38>
40000f2c:	00008067          	jalr	zero,0(ra)
40000f30:	00000513          	addi	a0,zero,0
40000f34:	00008067          	jalr	zero,0(ra)
40000f38:	00100793          	addi	a5,zero,1
40000f3c:	00000513          	addi	a0,zero,0
40000f40:	fd5ff06f          	jal	zero,40000f14 <__udivsi3+0x38>

40000f44 <__umodsi3>:
40000f44:	04a5f663          	bgeu	a1,a0,40000f90 <__umodsi3+0x4c>
40000f48:	0405c463          	blt	a1,zero,40000f90 <__umodsi3+0x4c>
40000f4c:	02000713          	addi	a4,zero,32
40000f50:	00100793          	addi	a5,zero,1
40000f54:	00c0006f          	jal	zero,40000f60 <__umodsi3+0x1c>
40000f58:	02070863          	beq	a4,zero,40000f88 <__umodsi3+0x44>
40000f5c:	0005cc63          	blt	a1,zero,40000f74 <__umodsi3+0x30>
40000f60:	00159593          	slli	a1,a1,0x1
40000f64:	fff70713          	addi	a4,a4,-1
40000f68:	00179793          	slli	a5,a5,0x1
40000f6c:	fea5e6e3          	bltu	a1,a0,40000f58 <__umodsi3+0x14>
40000f70:	00078e63          	beq	a5,zero,40000f8c <__umodsi3+0x48>
40000f74:	0017d793          	srli	a5,a5,0x1
40000f78:	00b56463          	bltu	a0,a1,40000f80 <__umodsi3+0x3c>
40000f7c:	40b50533          	sub	a0,a0,a1
40000f80:	0015d593          	srli	a1,a1,0x1
40000f84:	fe0798e3          	bne	a5,zero,40000f74 <__umodsi3+0x30>
40000f88:	00008067          	jalr	zero,0(ra)
40000f8c:	00008067          	jalr	zero,0(ra)
40000f90:	00100793          	addi	a5,zero,1
40000f94:	fe1ff06f          	jal	zero,40000f74 <__umodsi3+0x30>

40000f98 <__addsf3>:
40000f98:	00050713          	addi	a4,a0,0
40000f9c:	00050813          	addi	a6,a0,0
40000fa0:	00058893          	addi	a7,a1,0
40000fa4:	0c050a63          	beq	a0,zero,40001078 <__addsf3+0xe0>
40000fa8:	0c058a63          	beq	a1,zero,4000107c <__addsf3+0xe4>
40000fac:	4175d613          	srai	a2,a1,0x17
40000fb0:	41755693          	srai	a3,a0,0x17
40000fb4:	0ff67613          	andi	a2,a2,255
40000fb8:	0ff6f693          	andi	a3,a3,255
40000fbc:	01960793          	addi	a5,a2,25
40000fc0:	0ad7ce63          	blt	a5,a3,4000107c <__addsf3+0xe4>
40000fc4:	01968793          	addi	a5,a3,25
40000fc8:	00058513          	addi	a0,a1,0
40000fcc:	0ac7c863          	blt	a5,a2,4000107c <__addsf3+0xe4>
40000fd0:	20000537          	lui	a0,0x20000
40000fd4:	fc050793          	addi	a5,a0,-64 # 1fffffc0 <_entry-0x20000040>
40000fd8:	00671713          	slli	a4,a4,0x6
40000fdc:	00659593          	slli	a1,a1,0x6
40000fe0:	00f5f5b3          	and	a1,a1,a5
40000fe4:	00f77733          	and	a4,a4,a5
40000fe8:	00a767b3          	or	a5,a4,a0
40000fec:	00a5e5b3          	or	a1,a1,a0
40000ff0:	08084c63          	blt	a6,zero,40001088 <__addsf3+0xf0>
40000ff4:	0808c663          	blt	a7,zero,40001080 <__addsf3+0xe8>
40000ff8:	08d65e63          	bge	a2,a3,40001094 <__addsf3+0xfc>
40000ffc:	40c68633          	sub	a2,a3,a2
40001000:	40c5d5b3          	sra	a1,a1,a2
40001004:	00b787b3          	add	a5,a5,a1
40001008:	0807ce63          	blt	a5,zero,400010a4 <__addsf3+0x10c>
4000100c:	00000513          	addi	a0,zero,0
40001010:	06078663          	beq	a5,zero,4000107c <__addsf3+0xe4>
40001014:	00000513          	addi	a0,zero,0
40001018:	e0000737          	lui	a4,0xe0000
4000101c:	00e7f733          	and	a4,a5,a4
40001020:	e0000637          	lui	a2,0xe0000
40001024:	08071663          	bne	a4,zero,400010b0 <__addsf3+0x118>
40001028:	00179793          	slli	a5,a5,0x1
4000102c:	00c7f733          	and	a4,a5,a2
40001030:	fff68693          	addi	a3,a3,-1
40001034:	fe070ae3          	beq	a4,zero,40001028 <__addsf3+0x90>
40001038:	0407f713          	andi	a4,a5,64
4000103c:	00e03733          	sltu	a4,zero,a4
40001040:	01f70713          	addi	a4,a4,31 # e000001f <_stack+0x90000023>
40001044:	00e787b3          	add	a5,a5,a4
40001048:	00179713          	slli	a4,a5,0x1
4000104c:	00075663          	bge	a4,zero,40001058 <__addsf3+0xc0>
40001050:	4017d793          	srai	a5,a5,0x1
40001054:	00168693          	addi	a3,a3,1
40001058:	01769693          	slli	a3,a3,0x17
4000105c:	00a6e6b3          	or	a3,a3,a0
40001060:	ff800537          	lui	a0,0xff800
40001064:	4067d793          	srai	a5,a5,0x6
40001068:	fff50513          	addi	a0,a0,-1 # ff7fffff <_stack+0xaf800003>
4000106c:	00a7f533          	and	a0,a5,a0
40001070:	00a6e533          	or	a0,a3,a0
40001074:	00008067          	jalr	zero,0(ra)
40001078:	00058513          	addi	a0,a1,0
4000107c:	00008067          	jalr	zero,0(ra)
40001080:	40b005b3          	sub	a1,zero,a1
40001084:	f75ff06f          	jal	zero,40000ff8 <__addsf3+0x60>
40001088:	40f007b3          	sub	a5,zero,a5
4000108c:	f608d6e3          	bge	a7,zero,40000ff8 <__addsf3+0x60>
40001090:	ff1ff06f          	jal	zero,40001080 <__addsf3+0xe8>
40001094:	40d606b3          	sub	a3,a2,a3
40001098:	40d7d7b3          	sra	a5,a5,a3
4000109c:	00060693          	addi	a3,a2,0 # e0000000 <_stack+0x90000004>
400010a0:	f65ff06f          	jal	zero,40001004 <__addsf3+0x6c>
400010a4:	40f007b3          	sub	a5,zero,a5
400010a8:	80000537          	lui	a0,0x80000
400010ac:	f6dff06f          	jal	zero,40001018 <__addsf3+0x80>
400010b0:	00179713          	slli	a4,a5,0x1
400010b4:	f80752e3          	bge	a4,zero,40001038 <__addsf3+0xa0>
400010b8:	4017d793          	srai	a5,a5,0x1
400010bc:	00168693          	addi	a3,a3,1
400010c0:	f79ff06f          	jal	zero,40001038 <__addsf3+0xa0>

400010c4 <__subsf3>:
400010c4:	02058063          	beq	a1,zero,400010e4 <__subsf3+0x20>
400010c8:	00050863          	beq	a0,zero,400010d8 <__subsf3+0x14>
400010cc:	800007b7          	lui	a5,0x80000
400010d0:	00b7c5b3          	xor	a1,a5,a1
400010d4:	ec5ff06f          	jal	zero,40000f98 <__addsf3>
400010d8:	80000537          	lui	a0,0x80000
400010dc:	00b54533          	xor	a0,a0,a1
400010e0:	00008067          	jalr	zero,0(ra)
400010e4:	00008067          	jalr	zero,0(ra)

400010e8 <__ltsf2>:
400010e8:	00054a63          	blt	a0,zero,400010fc <__ltsf2+0x14>
400010ec:	00b52533          	slt	a0,a0,a1
400010f0:	40a007b3          	sub	a5,zero,a0
400010f4:	00078513          	addi	a0,a5,0 # 80000000 <_stack+0x30000004>
400010f8:	00008067          	jalr	zero,0(ra)
400010fc:	fff00793          	addi	a5,zero,-1
40001100:	fe05dae3          	bge	a1,zero,400010f4 <__ltsf2+0xc>
40001104:	800007b7          	lui	a5,0x80000
40001108:	00b7c5b3          	xor	a1,a5,a1
4000110c:	00a7c533          	xor	a0,a5,a0
40001110:	00a5a533          	slt	a0,a1,a0
40001114:	40a007b3          	sub	a5,zero,a0
40001118:	00078513          	addi	a0,a5,0 # 80000000 <_stack+0x30000004>
4000111c:	00008067          	jalr	zero,0(ra)

40001120 <__gtsf2>:
40001120:	00050793          	addi	a5,a0,0 # 80000000 <_stack+0x30000004>
40001124:	00054863          	blt	a0,zero,40001134 <__gtsf2+0x14>
40001128:	02b54a63          	blt	a0,a1,4000115c <__gtsf2+0x3c>
4000112c:	00a5a533          	slt	a0,a1,a0
40001130:	00008067          	jalr	zero,0(ra)
40001134:	00000513          	addi	a0,zero,0
40001138:	0005c463          	blt	a1,zero,40001140 <__gtsf2+0x20>
4000113c:	00008067          	jalr	zero,0(ra)
40001140:	80000737          	lui	a4,0x80000
40001144:	00f747b3          	xor	a5,a4,a5
40001148:	00b745b3          	xor	a1,a4,a1
4000114c:	00f5c663          	blt	a1,a5,40001158 <__gtsf2+0x38>
40001150:	00b7a533          	slt	a0,a5,a1
40001154:	00008067          	jalr	zero,0(ra)
40001158:	00008067          	jalr	zero,0(ra)
4000115c:	00000513          	addi	a0,zero,0
40001160:	00008067          	jalr	zero,0(ra)

40001164 <__mulsf3>:
40001164:	00000793          	addi	a5,zero,0
40001168:	10050463          	beq	a0,zero,40001270 <__mulsf3+0x10c>
4000116c:	10058263          	beq	a1,zero,40001270 <__mulsf3+0x10c>
40001170:	fe010113          	addi	sp,sp,-32
40001174:	000087b7          	lui	a5,0x8
40001178:	fff78713          	addi	a4,a5,-1 # 7fff <_entry-0x3fff8001>
4000117c:	01312623          	sw	s3,12(sp)
40001180:	01412423          	sw	s4,8(sp)
40001184:	40855993          	srai	s3,a0,0x8
40001188:	4085da13          	srai	s4,a1,0x8
4000118c:	00e9f9b3          	and	s3,s3,a4
40001190:	00ea7a33          	and	s4,s4,a4
40001194:	41755713          	srai	a4,a0,0x17
40001198:	00f9e9b3          	or	s3,s3,a5
4000119c:	00fa6a33          	or	s4,s4,a5
400011a0:	00812c23          	sw	s0,24(sp)
400011a4:	01212823          	sw	s2,16(sp)
400011a8:	4175d413          	srai	s0,a1,0x17
400011ac:	00058913          	addi	s2,a1,0
400011b0:	0ff77713          	andi	a4,a4,255
400011b4:	00a947b3          	xor	a5,s2,a0
400011b8:	f8270713          	addi	a4,a4,-126 # 7fffff82 <_stack+0x2fffff86>
400011bc:	00912a23          	sw	s1,20(sp)
400011c0:	01512223          	sw	s5,4(sp)
400011c4:	00050493          	addi	s1,a0,0
400011c8:	000a0593          	addi	a1,s4,0
400011cc:	0ff47413          	andi	s0,s0,255
400011d0:	00098513          	addi	a0,s3,0
400011d4:	80000ab7          	lui	s5,0x80000
400011d8:	00e40433          	add	s0,s0,a4
400011dc:	00112e23          	sw	ra,28(sp)
400011e0:	0157fab3          	and	s5,a5,s5
400011e4:	01612023          	sw	s6,0(sp)
400011e8:	bddff0ef          	jal	ra,40000dc4 <__mulsi3>
400011ec:	00050b13          	addi	s6,a0,0
400011f0:	000a0593          	addi	a1,s4,0
400011f4:	0ff4f513          	andi	a0,s1,255
400011f8:	bcdff0ef          	jal	ra,40000dc4 <__mulsi3>
400011fc:	0ff97913          	andi	s2,s2,255
40001200:	40855493          	srai	s1,a0,0x8
40001204:	00098593          	addi	a1,s3,0
40001208:	00090513          	addi	a0,s2,0
4000120c:	bb9ff0ef          	jal	ra,40000dc4 <__mulsi3>
40001210:	016484b3          	add	s1,s1,s6
40001214:	40855513          	srai	a0,a0,0x8
40001218:	00950533          	add	a0,a0,s1
4000121c:	00255713          	srli	a4,a0,0x2
40001220:	04055c63          	bge	a0,zero,40001278 <__mulsf3+0x114>
40001224:	02070513          	addi	a0,a4,32
40001228:	00655513          	srli	a0,a0,0x6
4000122c:	ff800737          	lui	a4,0xff800
40001230:	01741793          	slli	a5,s0,0x17
40001234:	01c12083          	lw	ra,28(sp)
40001238:	01812403          	lw	s0,24(sp)
4000123c:	fff70713          	addi	a4,a4,-1 # ff7fffff <_stack+0xaf800003>
40001240:	0157e7b3          	or	a5,a5,s5
40001244:	00e57533          	and	a0,a0,a4
40001248:	00a7e7b3          	or	a5,a5,a0
4000124c:	01412483          	lw	s1,20(sp)
40001250:	01012903          	lw	s2,16(sp)
40001254:	00c12983          	lw	s3,12(sp)
40001258:	00812a03          	lw	s4,8(sp)
4000125c:	00412a83          	lw	s5,4(sp)
40001260:	00012b03          	lw	s6,0(sp)
40001264:	00078513          	addi	a0,a5,0
40001268:	02010113          	addi	sp,sp,32
4000126c:	00008067          	jalr	zero,0(ra)
40001270:	00078513          	addi	a0,a5,0
40001274:	00008067          	jalr	zero,0(ra)
40001278:	01070713          	addi	a4,a4,16
4000127c:	00575513          	srli	a0,a4,0x5
40001280:	00751793          	slli	a5,a0,0x7
40001284:	0007d663          	bge	a5,zero,40001290 <__mulsf3+0x12c>
40001288:	00675513          	srli	a0,a4,0x6
4000128c:	fa1ff06f          	jal	zero,4000122c <__mulsf3+0xc8>
40001290:	fff40413          	addi	s0,s0,-1
40001294:	f99ff06f          	jal	zero,4000122c <__mulsf3+0xc8>

40001298 <__divsf3>:
40001298:	00050793          	addi	a5,a0,0
4000129c:	00b548b3          	xor	a7,a0,a1
400012a0:	0a058263          	beq	a1,zero,40001344 <__divsf3+0xac>
400012a4:	00000513          	addi	a0,zero,0
400012a8:	08078c63          	beq	a5,zero,40001340 <__divsf3+0xa8>
400012ac:	00800637          	lui	a2,0x800
400012b0:	fff60713          	addi	a4,a2,-1 # 7fffff <_entry-0x3f800001>
400012b4:	4177d693          	srai	a3,a5,0x17
400012b8:	4175d513          	srai	a0,a1,0x17
400012bc:	00f777b3          	and	a5,a4,a5
400012c0:	0ff6f693          	andi	a3,a3,255
400012c4:	0ff57513          	andi	a0,a0,255
400012c8:	00b77733          	and	a4,a4,a1
400012cc:	40a686b3          	sub	a3,a3,a0
400012d0:	00c7e7b3          	or	a5,a5,a2
400012d4:	00c76633          	or	a2,a4,a2
400012d8:	07e68813          	addi	a6,a3,126
400012dc:	06c7cc63          	blt	a5,a2,40001354 <__divsf3+0xbc>
400012e0:	07f68813          	addi	a6,a3,127
400012e4:	01900713          	addi	a4,zero,25
400012e8:	010006b7          	lui	a3,0x1000
400012ec:	00000593          	addi	a1,zero,0
400012f0:	fff70713          	addi	a4,a4,-1
400012f4:	00c7c663          	blt	a5,a2,40001300 <__divsf3+0x68>
400012f8:	00d5e5b3          	or	a1,a1,a3
400012fc:	40c787b3          	sub	a5,a5,a2
40001300:	00179793          	slli	a5,a5,0x1
40001304:	4016d693          	srai	a3,a3,0x1
40001308:	fe0714e3          	bne	a4,zero,400012f0 <__divsf3+0x58>
4000130c:	800007b7          	lui	a5,0x80000
40001310:	00f8f8b3          	and	a7,a7,a5
40001314:	00158513          	addi	a0,a1,1
40001318:	ff8007b7          	lui	a5,0xff800
4000131c:	fff78793          	addi	a5,a5,-1 # ff7fffff <_stack+0xaf800003>
40001320:	40155513          	srai	a0,a0,0x1
40001324:	01781813          	slli	a6,a6,0x17
40001328:	01186833          	or	a6,a6,a7
4000132c:	00f57533          	and	a0,a0,a5
40001330:	00a86533          	or	a0,a6,a0
40001334:	00008067          	jalr	zero,0(ra)
40001338:	400037b7          	lui	a5,0x40003
4000133c:	a847a503          	lw	a0,-1404(a5) # 40002a84 <_etext+0x1a0>
40001340:	00008067          	jalr	zero,0(ra)
40001344:	fe08cae3          	blt	a7,zero,40001338 <__divsf3+0xa0>
40001348:	400037b7          	lui	a5,0x40003
4000134c:	a807a503          	lw	a0,-1408(a5) # 40002a80 <_etext+0x19c>
40001350:	00008067          	jalr	zero,0(ra)
40001354:	00179793          	slli	a5,a5,0x1
40001358:	f8dff06f          	jal	zero,400012e4 <__divsf3+0x4c>

4000135c <__fixsfsi>:
4000135c:	01755693          	srli	a3,a0,0x17
40001360:	40000637          	lui	a2,0x40000
40001364:	0ff6f713          	andi	a4,a3,255
40001368:	00751793          	slli	a5,a0,0x7
4000136c:	f8060593          	addi	a1,a2,-128 # 3fffff80 <_entry-0x80>
40001370:	09d00693          	addi	a3,zero,157
40001374:	00b7f7b3          	and	a5,a5,a1
40001378:	40e686b3          	sub	a3,a3,a4
4000137c:	01f55713          	srli	a4,a0,0x1f
40001380:	00c7e533          	or	a0,a5,a2
40001384:	00d05a63          	bge	zero,a3,40001398 <__fixsfsi+0x3c>
40001388:	01e00793          	addi	a5,zero,30
4000138c:	40d55533          	sra	a0,a0,a3
40001390:	00d7d463          	bge	a5,a3,40001398 <__fixsfsi+0x3c>
40001394:	00000513          	addi	a0,zero,0
40001398:	00070463          	beq	a4,zero,400013a0 <__fixsfsi+0x44>
4000139c:	40a00533          	sub	a0,zero,a0
400013a0:	00008067          	jalr	zero,0(ra)

400013a4 <__floatsisf>:
400013a4:	08050063          	beq	a0,zero,40001424 <__floatsisf+0x80>
400013a8:	41f55713          	srai	a4,a0,0x1f
400013ac:	00a747b3          	xor	a5,a4,a0
400013b0:	40e787b3          	sub	a5,a5,a4
400013b4:	ff000737          	lui	a4,0xff000
400013b8:	00e7f733          	and	a4,a5,a4
400013bc:	04070063          	beq	a4,zero,400013fc <__floatsisf+0x58>
400013c0:	09600713          	addi	a4,zero,150
400013c4:	ff000637          	lui	a2,0xff000
400013c8:	4017d793          	srai	a5,a5,0x1
400013cc:	00c7f6b3          	and	a3,a5,a2
400013d0:	00170713          	addi	a4,a4,1 # ff000001 <_stack+0xaf000005>
400013d4:	fe069ae3          	bne	a3,zero,400013c8 <__floatsisf+0x24>
400013d8:	008006b7          	lui	a3,0x800
400013dc:	fff68693          	addi	a3,a3,-1 # 7fffff <_entry-0x3f800001>
400013e0:	01771713          	slli	a4,a4,0x17
400013e4:	00d7f7b3          	and	a5,a5,a3
400013e8:	01f55513          	srli	a0,a0,0x1f
400013ec:	00f767b3          	or	a5,a4,a5
400013f0:	01f51513          	slli	a0,a0,0x1f
400013f4:	00a7e533          	or	a0,a5,a0
400013f8:	00008067          	jalr	zero,0(ra)
400013fc:	ff800737          	lui	a4,0xff800
40001400:	00e7f733          	and	a4,a5,a4
40001404:	02071463          	bne	a4,zero,4000142c <__floatsisf+0x88>
40001408:	09600713          	addi	a4,zero,150
4000140c:	ff800637          	lui	a2,0xff800
40001410:	00179793          	slli	a5,a5,0x1
40001414:	00c7f6b3          	and	a3,a5,a2
40001418:	fff70713          	addi	a4,a4,-1 # ff7fffff <_stack+0xaf800003>
4000141c:	fe068ae3          	beq	a3,zero,40001410 <__floatsisf+0x6c>
40001420:	fb9ff06f          	jal	zero,400013d8 <__floatsisf+0x34>
40001424:	00000513          	addi	a0,zero,0
40001428:	00008067          	jalr	zero,0(ra)
4000142c:	09600713          	addi	a4,zero,150
40001430:	fa9ff06f          	jal	zero,400013d8 <__floatsisf+0x34>

40001434 <xatan>:
40001434:	fe010113          	addi	sp,sp,-32
40001438:	00050593          	addi	a1,a0,0
4000143c:	00112e23          	sw	ra,28(sp)
40001440:	00812c23          	sw	s0,24(sp)
40001444:	00912a23          	sw	s1,20(sp)
40001448:	01212823          	sw	s2,16(sp)
4000144c:	01312623          	sw	s3,12(sp)
40001450:	00050493          	addi	s1,a0,0
40001454:	d11ff0ef          	jal	ra,40001164 <__mulsf3>
40001458:	400037b7          	lui	a5,0x40003
4000145c:	b347a583          	lw	a1,-1228(a5) # 40002b34 <_etext+0x250>
40001460:	00050413          	addi	s0,a0,0
40001464:	40003937          	lui	s2,0x40003
40001468:	cfdff0ef          	jal	ra,40001164 <__mulsf3>
4000146c:	400037b7          	lui	a5,0x40003
40001470:	b387a583          	lw	a1,-1224(a5) # 40002b38 <_etext+0x254>
40001474:	b25ff0ef          	jal	ra,40000f98 <__addsf3>
40001478:	00040593          	addi	a1,s0,0
4000147c:	ce9ff0ef          	jal	ra,40001164 <__mulsf3>
40001480:	400037b7          	lui	a5,0x40003
40001484:	b3c7a583          	lw	a1,-1220(a5) # 40002b3c <_etext+0x258>
40001488:	b11ff0ef          	jal	ra,40000f98 <__addsf3>
4000148c:	00040593          	addi	a1,s0,0
40001490:	cd5ff0ef          	jal	ra,40001164 <__mulsf3>
40001494:	400037b7          	lui	a5,0x40003
40001498:	b407a583          	lw	a1,-1216(a5) # 40002b40 <_etext+0x25c>
4000149c:	afdff0ef          	jal	ra,40000f98 <__addsf3>
400014a0:	00040593          	addi	a1,s0,0
400014a4:	cc1ff0ef          	jal	ra,40001164 <__mulsf3>
400014a8:	b4492583          	lw	a1,-1212(s2) # 40002b44 <_etext+0x260>
400014ac:	aedff0ef          	jal	ra,40000f98 <__addsf3>
400014b0:	400037b7          	lui	a5,0x40003
400014b4:	b487a583          	lw	a1,-1208(a5) # 40002b48 <_etext+0x264>
400014b8:	00050993          	addi	s3,a0,0
400014bc:	00040513          	addi	a0,s0,0
400014c0:	ad9ff0ef          	jal	ra,40000f98 <__addsf3>
400014c4:	00040593          	addi	a1,s0,0
400014c8:	c9dff0ef          	jal	ra,40001164 <__mulsf3>
400014cc:	400037b7          	lui	a5,0x40003
400014d0:	b4c7a583          	lw	a1,-1204(a5) # 40002b4c <_etext+0x268>
400014d4:	ac5ff0ef          	jal	ra,40000f98 <__addsf3>
400014d8:	00040593          	addi	a1,s0,0
400014dc:	c89ff0ef          	jal	ra,40001164 <__mulsf3>
400014e0:	400037b7          	lui	a5,0x40003
400014e4:	b507a583          	lw	a1,-1200(a5) # 40002b50 <_etext+0x26c>
400014e8:	ab1ff0ef          	jal	ra,40000f98 <__addsf3>
400014ec:	00040593          	addi	a1,s0,0
400014f0:	c75ff0ef          	jal	ra,40001164 <__mulsf3>
400014f4:	400037b7          	lui	a5,0x40003
400014f8:	b547a583          	lw	a1,-1196(a5) # 40002b54 <_etext+0x270>
400014fc:	a9dff0ef          	jal	ra,40000f98 <__addsf3>
40001500:	00040593          	addi	a1,s0,0
40001504:	c61ff0ef          	jal	ra,40001164 <__mulsf3>
40001508:	b4492583          	lw	a1,-1212(s2)
4000150c:	a8dff0ef          	jal	ra,40000f98 <__addsf3>
40001510:	00050593          	addi	a1,a0,0
40001514:	00098513          	addi	a0,s3,0
40001518:	d81ff0ef          	jal	ra,40001298 <__divsf3>
4000151c:	00048593          	addi	a1,s1,0
40001520:	c45ff0ef          	jal	ra,40001164 <__mulsf3>
40001524:	01c12083          	lw	ra,28(sp)
40001528:	01812403          	lw	s0,24(sp)
4000152c:	01412483          	lw	s1,20(sp)
40001530:	01012903          	lw	s2,16(sp)
40001534:	00c12983          	lw	s3,12(sp)
40001538:	02010113          	addi	sp,sp,32
4000153c:	00008067          	jalr	zero,0(ra)

40001540 <satan>:
40001540:	400037b7          	lui	a5,0x40003
40001544:	aec7a583          	lw	a1,-1300(a5) # 40002aec <_etext+0x208>
40001548:	ff010113          	addi	sp,sp,-16
4000154c:	00812423          	sw	s0,8(sp)
40001550:	00112623          	sw	ra,12(sp)
40001554:	00912223          	sw	s1,4(sp)
40001558:	01212023          	sw	s2,0(sp)
4000155c:	00050413          	addi	s0,a0,0
40001560:	b89ff0ef          	jal	ra,400010e8 <__ltsf2>
40001564:	0a054463          	blt	a0,zero,4000160c <satan+0xcc>
40001568:	400037b7          	lui	a5,0x40003
4000156c:	af07a583          	lw	a1,-1296(a5) # 40002af0 <_etext+0x20c>
40001570:	00040513          	addi	a0,s0,0
40001574:	badff0ef          	jal	ra,40001120 <__gtsf2>
40001578:	04a04c63          	blt	zero,a0,400015d0 <satan+0x90>
4000157c:	400034b7          	lui	s1,0x40003
40001580:	af44a583          	lw	a1,-1292(s1) # 40002af4 <_etext+0x210>
40001584:	00040513          	addi	a0,s0,0
40001588:	b3dff0ef          	jal	ra,400010c4 <__subsf3>
4000158c:	af44a583          	lw	a1,-1292(s1)
40001590:	00050913          	addi	s2,a0,0
40001594:	00040513          	addi	a0,s0,0
40001598:	a01ff0ef          	jal	ra,40000f98 <__addsf3>
4000159c:	00050593          	addi	a1,a0,0
400015a0:	00090513          	addi	a0,s2,0
400015a4:	cf5ff0ef          	jal	ra,40001298 <__divsf3>
400015a8:	e8dff0ef          	jal	ra,40001434 <xatan>
400015ac:	400037b7          	lui	a5,0x40003
400015b0:	afc7a583          	lw	a1,-1284(a5) # 40002afc <_etext+0x218>
400015b4:	9e5ff0ef          	jal	ra,40000f98 <__addsf3>
400015b8:	00c12083          	lw	ra,12(sp)
400015bc:	00812403          	lw	s0,8(sp)
400015c0:	00412483          	lw	s1,4(sp)
400015c4:	00012903          	lw	s2,0(sp)
400015c8:	01010113          	addi	sp,sp,16
400015cc:	00008067          	jalr	zero,0(ra)
400015d0:	400037b7          	lui	a5,0x40003
400015d4:	af47a503          	lw	a0,-1292(a5) # 40002af4 <_etext+0x210>
400015d8:	00040593          	addi	a1,s0,0
400015dc:	cbdff0ef          	jal	ra,40001298 <__divsf3>
400015e0:	e55ff0ef          	jal	ra,40001434 <xatan>
400015e4:	400037b7          	lui	a5,0x40003
400015e8:	00050593          	addi	a1,a0,0
400015ec:	af87a503          	lw	a0,-1288(a5) # 40002af8 <_etext+0x214>
400015f0:	ad5ff0ef          	jal	ra,400010c4 <__subsf3>
400015f4:	00c12083          	lw	ra,12(sp)
400015f8:	00812403          	lw	s0,8(sp)
400015fc:	00412483          	lw	s1,4(sp)
40001600:	00012903          	lw	s2,0(sp)
40001604:	01010113          	addi	sp,sp,16
40001608:	00008067          	jalr	zero,0(ra)
4000160c:	00040513          	addi	a0,s0,0
40001610:	00812403          	lw	s0,8(sp)
40001614:	00c12083          	lw	ra,12(sp)
40001618:	00412483          	lw	s1,4(sp)
4000161c:	00012903          	lw	s2,0(sp)
40001620:	01010113          	addi	sp,sp,16
40001624:	e11ff06f          	jal	zero,40001434 <xatan>

40001628 <modf>:
40001628:	7f800737          	lui	a4,0x7f800
4000162c:	00a776b3          	and	a3,a4,a0
40001630:	00050793          	addi	a5,a0,0
40001634:	08e68c63          	beq	a3,a4,400016cc <modf+0xa4>
40001638:	01755713          	srli	a4,a0,0x17
4000163c:	0ff77713          	andi	a4,a4,255
40001640:	09500693          	addi	a3,zero,149
40001644:	06e6ec63          	bltu	a3,a4,400016bc <modf+0x94>
40001648:	07e00693          	addi	a3,zero,126
4000164c:	08e6f263          	bgeu	a3,a4,400016d0 <modf+0xa8>
40001650:	ff010113          	addi	sp,sp,-16
40001654:	00812423          	sw	s0,8(sp)
40001658:	00800437          	lui	s0,0x800
4000165c:	fff40413          	addi	s0,s0,-1 # 7fffff <_entry-0x3f800001>
40001660:	09600693          	addi	a3,zero,150
40001664:	40e686b3          	sub	a3,a3,a4
40001668:	00a47733          	and	a4,s0,a0
4000166c:	00d75733          	srl	a4,a4,a3
40001670:	00d71733          	sll	a4,a4,a3
40001674:	00877733          	and	a4,a4,s0
40001678:	ff800437          	lui	s0,0xff800
4000167c:	00a477b3          	and	a5,s0,a0
40001680:	00112623          	sw	ra,12(sp)
40001684:	00e7e433          	or	s0,a5,a4
40001688:	0085a023          	sw	s0,0(a1)
4000168c:	00040593          	addi	a1,s0,0 # ff800000 <_stack+0xaf800004>
40001690:	a35ff0ef          	jal	ra,400010c4 <__subsf3>
40001694:	01f45793          	srli	a5,s0,0x1f
40001698:	00c12083          	lw	ra,12(sp)
4000169c:	00812403          	lw	s0,8(sp)
400016a0:	80000737          	lui	a4,0x80000
400016a4:	fff74713          	xori	a4,a4,-1
400016a8:	01f79793          	slli	a5,a5,0x1f
400016ac:	00a77533          	and	a0,a4,a0
400016b0:	00f56533          	or	a0,a0,a5
400016b4:	01010113          	addi	sp,sp,16
400016b8:	00008067          	jalr	zero,0(ra)
400016bc:	01f55513          	srli	a0,a0,0x1f
400016c0:	00f5a023          	sw	a5,0(a1)
400016c4:	01f51513          	slli	a0,a0,0x1f
400016c8:	00008067          	jalr	zero,0(ra)
400016cc:	00008067          	jalr	zero,0(ra)
400016d0:	01f55713          	srli	a4,a0,0x1f
400016d4:	01f71713          	slli	a4,a4,0x1f
400016d8:	00e5a023          	sw	a4,0(a1)
400016dc:	00008067          	jalr	zero,0(ra)

400016e0 <sinus>:
400016e0:	fe010113          	addi	sp,sp,-32
400016e4:	00812c23          	sw	s0,24(sp)
400016e8:	00058413          	addi	s0,a1,0
400016ec:	00000593          	addi	a1,zero,0
400016f0:	00912a23          	sw	s1,20(sp)
400016f4:	00112e23          	sw	ra,28(sp)
400016f8:	01212823          	sw	s2,16(sp)
400016fc:	00050493          	addi	s1,a0,0
40001700:	9e9ff0ef          	jal	ra,400010e8 <__ltsf2>
40001704:	00055863          	bge	a0,zero,40001714 <sinus+0x34>
40001708:	800007b7          	lui	a5,0x80000
4000170c:	0097c4b3          	xor	s1,a5,s1
40001710:	00240413          	addi	s0,s0,2
40001714:	400037b7          	lui	a5,0x40003
40001718:	b007a583          	lw	a1,-1280(a5) # 40002b00 <_etext+0x21c>
4000171c:	00048513          	addi	a0,s1,0
40001720:	a45ff0ef          	jal	ra,40001164 <__mulsf3>
40001724:	400037b7          	lui	a5,0x40003
40001728:	b047a583          	lw	a1,-1276(a5) # 40002b04 <_etext+0x220>
4000172c:	00050493          	addi	s1,a0,0
40001730:	9f1ff0ef          	jal	ra,40001120 <__gtsf2>
40001734:	12a04e63          	blt	zero,a0,40001870 <sinus+0x190>
40001738:	00048513          	addi	a0,s1,0
4000173c:	c21ff0ef          	jal	ra,4000135c <__fixsfsi>
40001740:	00050913          	addi	s2,a0,0
40001744:	c61ff0ef          	jal	ra,400013a4 <__floatsisf>
40001748:	00050593          	addi	a1,a0,0
4000174c:	00048513          	addi	a0,s1,0
40001750:	975ff0ef          	jal	ra,400010c4 <__subsf3>
40001754:	01240433          	add	s0,s0,s2
40001758:	00050493          	addi	s1,a0,0
4000175c:	00347413          	andi	s0,s0,3
40001760:	00147793          	andi	a5,s0,1
40001764:	0e079a63          	bne	a5,zero,40001858 <sinus+0x178>
40001768:	00100793          	addi	a5,zero,1
4000176c:	0087d663          	bge	a5,s0,40001778 <sinus+0x98>
40001770:	800007b7          	lui	a5,0x80000
40001774:	0097c4b3          	xor	s1,a5,s1
40001778:	00048593          	addi	a1,s1,0
4000177c:	00048513          	addi	a0,s1,0
40001780:	9e5ff0ef          	jal	ra,40001164 <__mulsf3>
40001784:	400037b7          	lui	a5,0x40003
40001788:	b107a583          	lw	a1,-1264(a5) # 40002b10 <_etext+0x22c>
4000178c:	00050413          	addi	s0,a0,0
40001790:	9d5ff0ef          	jal	ra,40001164 <__mulsf3>
40001794:	400037b7          	lui	a5,0x40003
40001798:	b147a583          	lw	a1,-1260(a5) # 40002b14 <_etext+0x230>
4000179c:	929ff0ef          	jal	ra,400010c4 <__subsf3>
400017a0:	00040593          	addi	a1,s0,0
400017a4:	9c1ff0ef          	jal	ra,40001164 <__mulsf3>
400017a8:	400037b7          	lui	a5,0x40003
400017ac:	b187a583          	lw	a1,-1256(a5) # 40002b18 <_etext+0x234>
400017b0:	fe8ff0ef          	jal	ra,40000f98 <__addsf3>
400017b4:	00040593          	addi	a1,s0,0
400017b8:	9adff0ef          	jal	ra,40001164 <__mulsf3>
400017bc:	400037b7          	lui	a5,0x40003
400017c0:	b1c7a583          	lw	a1,-1252(a5) # 40002b1c <_etext+0x238>
400017c4:	901ff0ef          	jal	ra,400010c4 <__subsf3>
400017c8:	00040593          	addi	a1,s0,0
400017cc:	999ff0ef          	jal	ra,40001164 <__mulsf3>
400017d0:	400037b7          	lui	a5,0x40003
400017d4:	b207a583          	lw	a1,-1248(a5) # 40002b20 <_etext+0x23c>
400017d8:	fc0ff0ef          	jal	ra,40000f98 <__addsf3>
400017dc:	00048593          	addi	a1,s1,0
400017e0:	985ff0ef          	jal	ra,40001164 <__mulsf3>
400017e4:	400037b7          	lui	a5,0x40003
400017e8:	b247a583          	lw	a1,-1244(a5) # 40002b24 <_etext+0x240>
400017ec:	00050493          	addi	s1,a0,0
400017f0:	00040513          	addi	a0,s0,0
400017f4:	fa4ff0ef          	jal	ra,40000f98 <__addsf3>
400017f8:	00040593          	addi	a1,s0,0
400017fc:	969ff0ef          	jal	ra,40001164 <__mulsf3>
40001800:	400037b7          	lui	a5,0x40003
40001804:	b287a583          	lw	a1,-1240(a5) # 40002b28 <_etext+0x244>
40001808:	f90ff0ef          	jal	ra,40000f98 <__addsf3>
4000180c:	00040593          	addi	a1,s0,0
40001810:	955ff0ef          	jal	ra,40001164 <__mulsf3>
40001814:	400037b7          	lui	a5,0x40003
40001818:	b2c7a583          	lw	a1,-1236(a5) # 40002b2c <_etext+0x248>
4000181c:	f7cff0ef          	jal	ra,40000f98 <__addsf3>
40001820:	00040593          	addi	a1,s0,0
40001824:	941ff0ef          	jal	ra,40001164 <__mulsf3>
40001828:	400037b7          	lui	a5,0x40003
4000182c:	b307a583          	lw	a1,-1232(a5) # 40002b30 <_etext+0x24c>
40001830:	f68ff0ef          	jal	ra,40000f98 <__addsf3>
40001834:	00050593          	addi	a1,a0,0
40001838:	00048513          	addi	a0,s1,0
4000183c:	a5dff0ef          	jal	ra,40001298 <__divsf3>
40001840:	01c12083          	lw	ra,28(sp)
40001844:	01812403          	lw	s0,24(sp)
40001848:	01412483          	lw	s1,20(sp)
4000184c:	01012903          	lw	s2,16(sp)
40001850:	02010113          	addi	sp,sp,32
40001854:	00008067          	jalr	zero,0(ra)
40001858:	400037b7          	lui	a5,0x40003
4000185c:	af47a503          	lw	a0,-1292(a5) # 40002af4 <_etext+0x210>
40001860:	00048593          	addi	a1,s1,0
40001864:	861ff0ef          	jal	ra,400010c4 <__subsf3>
40001868:	00050493          	addi	s1,a0,0
4000186c:	efdff06f          	jal	zero,40001768 <sinus+0x88>
40001870:	00810593          	addi	a1,sp,8
40001874:	00048513          	addi	a0,s1,0
40001878:	db1ff0ef          	jal	ra,40001628 <modf>
4000187c:	00050493          	addi	s1,a0,0
40001880:	00040513          	addi	a0,s0,0
40001884:	b21ff0ef          	jal	ra,400013a4 <__floatsisf>
40001888:	00812583          	lw	a1,8(sp)
4000188c:	f0cff0ef          	jal	ra,40000f98 <__addsf3>
40001890:	400037b7          	lui	a5,0x40003
40001894:	b087a583          	lw	a1,-1272(a5) # 40002b08 <_etext+0x224>
40001898:	00a12423          	sw	a0,8(sp)
4000189c:	8c9ff0ef          	jal	ra,40001164 <__mulsf3>
400018a0:	00c10593          	addi	a1,sp,12
400018a4:	d85ff0ef          	jal	ra,40001628 <modf>
400018a8:	400037b7          	lui	a5,0x40003
400018ac:	b0c7a583          	lw	a1,-1268(a5) # 40002b0c <_etext+0x228>
400018b0:	00c12503          	lw	a0,12(sp)
400018b4:	8b1ff0ef          	jal	ra,40001164 <__mulsf3>
400018b8:	00050593          	addi	a1,a0,0
400018bc:	00812503          	lw	a0,8(sp)
400018c0:	805ff0ef          	jal	ra,400010c4 <__subsf3>
400018c4:	a99ff0ef          	jal	ra,4000135c <__fixsfsi>
400018c8:	00050413          	addi	s0,a0,0
400018cc:	e95ff06f          	jal	zero,40001760 <sinus+0x80>

400018d0 <cos>:
400018d0:	ff010113          	addi	sp,sp,-16
400018d4:	00000593          	addi	a1,zero,0
400018d8:	00812423          	sw	s0,8(sp)
400018dc:	00112623          	sw	ra,12(sp)
400018e0:	00050413          	addi	s0,a0,0
400018e4:	805ff0ef          	jal	ra,400010e8 <__ltsf2>
400018e8:	00055663          	bge	a0,zero,400018f4 <cos+0x24>
400018ec:	800007b7          	lui	a5,0x80000
400018f0:	0087c433          	xor	s0,a5,s0
400018f4:	00040513          	addi	a0,s0,0
400018f8:	00812403          	lw	s0,8(sp)
400018fc:	00c12083          	lw	ra,12(sp)
40001900:	00100593          	addi	a1,zero,1
40001904:	01010113          	addi	sp,sp,16
40001908:	dd9ff06f          	jal	zero,400016e0 <sinus>

4000190c <atan>:
4000190c:	ff010113          	addi	sp,sp,-16
40001910:	00000593          	addi	a1,zero,0
40001914:	00812423          	sw	s0,8(sp)
40001918:	00112623          	sw	ra,12(sp)
4000191c:	00912223          	sw	s1,4(sp)
40001920:	00050413          	addi	s0,a0,0
40001924:	ffcff0ef          	jal	ra,40001120 <__gtsf2>
40001928:	00a05e63          	bge	zero,a0,40001944 <atan+0x38>
4000192c:	00040513          	addi	a0,s0,0
40001930:	00812403          	lw	s0,8(sp)
40001934:	00c12083          	lw	ra,12(sp)
40001938:	00412483          	lw	s1,4(sp)
4000193c:	01010113          	addi	sp,sp,16
40001940:	c01ff06f          	jal	zero,40001540 <satan>
40001944:	800004b7          	lui	s1,0x80000
40001948:	0084c533          	xor	a0,s1,s0
4000194c:	bf5ff0ef          	jal	ra,40001540 <satan>
40001950:	00c12083          	lw	ra,12(sp)
40001954:	00812403          	lw	s0,8(sp)
40001958:	00a4c533          	xor	a0,s1,a0
4000195c:	00412483          	lw	s1,4(sp)
40001960:	01010113          	addi	sp,sp,16
40001964:	00008067          	jalr	zero,0(ra)

40001968 <cos_0_degree_test>:
40001968:	400037b7          	lui	a5,0x40003
4000196c:	af47a783          	lw	a5,-1292(a5) # 40002af4 <_etext+0x210>
40001970:	fc010113          	addi	sp,sp,-64
40001974:	01010593          	addi	a1,sp,16
40001978:	00600613          	addi	a2,zero,6
4000197c:	00000513          	addi	a0,zero,0
40001980:	02112e23          	sw	ra,60(sp)
40001984:	00f12423          	sw	a5,8(sp)
40001988:	a48ff0ef          	jal	ra,40000bd0 <ftoa>
4000198c:	40003537          	lui	a0,0x40003
40001990:	01010613          	addi	a2,sp,16
40001994:	00000593          	addi	a1,zero,0
40001998:	b5850513          	addi	a0,a0,-1192 # 40002b58 <_etext+0x274>
4000199c:	be0ff0ef          	jal	ra,40000d7c <printf>
400019a0:	00000513          	addi	a0,zero,0
400019a4:	f2dff0ef          	jal	ra,400018d0 <cos>
400019a8:	00a12623          	sw	a0,12(sp)
400019ac:	40003537          	lui	a0,0x40003
400019b0:	b7850513          	addi	a0,a0,-1160 # 40002b78 <_etext+0x294>
400019b4:	bc8ff0ef          	jal	ra,40000d7c <printf>
400019b8:	00810593          	addi	a1,sp,8
400019bc:	00400513          	addi	a0,zero,4
400019c0:	8c9fe0ef          	jal	ra,40000288 <printBits>
400019c4:	40003537          	lui	a0,0x40003
400019c8:	b7c50513          	addi	a0,a0,-1156 # 40002b7c <_etext+0x298>
400019cc:	bb0ff0ef          	jal	ra,40000d7c <printf>
400019d0:	00c10593          	addi	a1,sp,12
400019d4:	00400513          	addi	a0,zero,4
400019d8:	8b1fe0ef          	jal	ra,40000288 <printBits>
400019dc:	00812503          	lw	a0,8(sp)
400019e0:	00600613          	addi	a2,zero,6
400019e4:	01010593          	addi	a1,sp,16
400019e8:	9e8ff0ef          	jal	ra,40000bd0 <ftoa>
400019ec:	40003537          	lui	a0,0x40003
400019f0:	01010593          	addi	a1,sp,16
400019f4:	b8050513          	addi	a0,a0,-1152 # 40002b80 <_etext+0x29c>
400019f8:	b84ff0ef          	jal	ra,40000d7c <printf>
400019fc:	00c12503          	lw	a0,12(sp)
40001a00:	00600613          	addi	a2,zero,6
40001a04:	01010593          	addi	a1,sp,16
40001a08:	9c8ff0ef          	jal	ra,40000bd0 <ftoa>
40001a0c:	40003537          	lui	a0,0x40003
40001a10:	01010593          	addi	a1,sp,16
40001a14:	b9050513          	addi	a0,a0,-1136 # 40002b90 <_etext+0x2ac>
40001a18:	b64ff0ef          	jal	ra,40000d7c <printf>
40001a1c:	00812583          	lw	a1,8(sp)
40001a20:	00c12503          	lw	a0,12(sp)
40001a24:	40003637          	lui	a2,0x40003
40001a28:	b9c60613          	addi	a2,a2,-1124 # 40002b9c <_etext+0x2b8>
40001a2c:	8f1fe0ef          	jal	ra,4000031c <hfunit_comp_float>
40001a30:	03c12083          	lw	ra,60(sp)
40001a34:	04010113          	addi	sp,sp,64
40001a38:	00008067          	jalr	zero,0(ra)

40001a3c <cos_1_degree_test>:
40001a3c:	fc010113          	addi	sp,sp,-64
40001a40:	400037b7          	lui	a5,0x40003
40001a44:	02812c23          	sw	s0,56(sp)
40001a48:	bbc7a403          	lw	s0,-1092(a5) # 40002bbc <_etext+0x2d8>
40001a4c:	400037b7          	lui	a5,0x40003
40001a50:	bb87a783          	lw	a5,-1096(a5) # 40002bb8 <_etext+0x2d4>
40001a54:	01010593          	addi	a1,sp,16
40001a58:	00600613          	addi	a2,zero,6
40001a5c:	00040513          	addi	a0,s0,0
40001a60:	02112e23          	sw	ra,60(sp)
40001a64:	00f12423          	sw	a5,8(sp)
40001a68:	968ff0ef          	jal	ra,40000bd0 <ftoa>
40001a6c:	40003537          	lui	a0,0x40003
40001a70:	01010613          	addi	a2,sp,16
40001a74:	00100593          	addi	a1,zero,1
40001a78:	b5850513          	addi	a0,a0,-1192 # 40002b58 <_etext+0x274>
40001a7c:	b00ff0ef          	jal	ra,40000d7c <printf>
40001a80:	00040513          	addi	a0,s0,0
40001a84:	e4dff0ef          	jal	ra,400018d0 <cos>
40001a88:	00a12623          	sw	a0,12(sp)
40001a8c:	40003537          	lui	a0,0x40003
40001a90:	b7850513          	addi	a0,a0,-1160 # 40002b78 <_etext+0x294>
40001a94:	ae8ff0ef          	jal	ra,40000d7c <printf>
40001a98:	00810593          	addi	a1,sp,8
40001a9c:	00400513          	addi	a0,zero,4
40001aa0:	fe8fe0ef          	jal	ra,40000288 <printBits>
40001aa4:	40003537          	lui	a0,0x40003
40001aa8:	b7c50513          	addi	a0,a0,-1156 # 40002b7c <_etext+0x298>
40001aac:	ad0ff0ef          	jal	ra,40000d7c <printf>
40001ab0:	00c10593          	addi	a1,sp,12
40001ab4:	00400513          	addi	a0,zero,4
40001ab8:	fd0fe0ef          	jal	ra,40000288 <printBits>
40001abc:	00812503          	lw	a0,8(sp)
40001ac0:	00600613          	addi	a2,zero,6
40001ac4:	01010593          	addi	a1,sp,16
40001ac8:	908ff0ef          	jal	ra,40000bd0 <ftoa>
40001acc:	40003537          	lui	a0,0x40003
40001ad0:	01010593          	addi	a1,sp,16
40001ad4:	b8050513          	addi	a0,a0,-1152 # 40002b80 <_etext+0x29c>
40001ad8:	aa4ff0ef          	jal	ra,40000d7c <printf>
40001adc:	00c12503          	lw	a0,12(sp)
40001ae0:	00600613          	addi	a2,zero,6
40001ae4:	01010593          	addi	a1,sp,16
40001ae8:	8e8ff0ef          	jal	ra,40000bd0 <ftoa>
40001aec:	40003537          	lui	a0,0x40003
40001af0:	01010593          	addi	a1,sp,16
40001af4:	b9050513          	addi	a0,a0,-1136 # 40002b90 <_etext+0x2ac>
40001af8:	a84ff0ef          	jal	ra,40000d7c <printf>
40001afc:	00812583          	lw	a1,8(sp)
40001b00:	00c12503          	lw	a0,12(sp)
40001b04:	40003637          	lui	a2,0x40003
40001b08:	bc060613          	addi	a2,a2,-1088 # 40002bc0 <_etext+0x2dc>
40001b0c:	811fe0ef          	jal	ra,4000031c <hfunit_comp_float>
40001b10:	03c12083          	lw	ra,60(sp)
40001b14:	03812403          	lw	s0,56(sp)
40001b18:	04010113          	addi	sp,sp,64
40001b1c:	00008067          	jalr	zero,0(ra)

40001b20 <cos_90_degree_test>:
40001b20:	fc010113          	addi	sp,sp,-64
40001b24:	400037b7          	lui	a5,0x40003
40001b28:	02812c23          	sw	s0,56(sp)
40001b2c:	af87a403          	lw	s0,-1288(a5) # 40002af8 <_etext+0x214>
40001b30:	01010593          	addi	a1,sp,16
40001b34:	00000793          	addi	a5,zero,0
40001b38:	00600613          	addi	a2,zero,6
40001b3c:	00040513          	addi	a0,s0,0
40001b40:	02112e23          	sw	ra,60(sp)
40001b44:	00f12423          	sw	a5,8(sp)
40001b48:	888ff0ef          	jal	ra,40000bd0 <ftoa>
40001b4c:	40003537          	lui	a0,0x40003
40001b50:	01010613          	addi	a2,sp,16
40001b54:	05a00593          	addi	a1,zero,90
40001b58:	b5850513          	addi	a0,a0,-1192 # 40002b58 <_etext+0x274>
40001b5c:	a20ff0ef          	jal	ra,40000d7c <printf>
40001b60:	00040513          	addi	a0,s0,0
40001b64:	d6dff0ef          	jal	ra,400018d0 <cos>
40001b68:	00a12623          	sw	a0,12(sp)
40001b6c:	40003537          	lui	a0,0x40003
40001b70:	b7850513          	addi	a0,a0,-1160 # 40002b78 <_etext+0x294>
40001b74:	a08ff0ef          	jal	ra,40000d7c <printf>
40001b78:	00810593          	addi	a1,sp,8
40001b7c:	00400513          	addi	a0,zero,4
40001b80:	f08fe0ef          	jal	ra,40000288 <printBits>
40001b84:	40003537          	lui	a0,0x40003
40001b88:	b7c50513          	addi	a0,a0,-1156 # 40002b7c <_etext+0x298>
40001b8c:	9f0ff0ef          	jal	ra,40000d7c <printf>
40001b90:	00c10593          	addi	a1,sp,12
40001b94:	00400513          	addi	a0,zero,4
40001b98:	ef0fe0ef          	jal	ra,40000288 <printBits>
40001b9c:	00812503          	lw	a0,8(sp)
40001ba0:	00600613          	addi	a2,zero,6
40001ba4:	01010593          	addi	a1,sp,16
40001ba8:	828ff0ef          	jal	ra,40000bd0 <ftoa>
40001bac:	40003537          	lui	a0,0x40003
40001bb0:	01010593          	addi	a1,sp,16
40001bb4:	b8050513          	addi	a0,a0,-1152 # 40002b80 <_etext+0x29c>
40001bb8:	9c4ff0ef          	jal	ra,40000d7c <printf>
40001bbc:	00c12503          	lw	a0,12(sp)
40001bc0:	00600613          	addi	a2,zero,6
40001bc4:	01010593          	addi	a1,sp,16
40001bc8:	808ff0ef          	jal	ra,40000bd0 <ftoa>
40001bcc:	40003537          	lui	a0,0x40003
40001bd0:	01010593          	addi	a1,sp,16
40001bd4:	b9050513          	addi	a0,a0,-1136 # 40002b90 <_etext+0x2ac>
40001bd8:	9a4ff0ef          	jal	ra,40000d7c <printf>
40001bdc:	00812583          	lw	a1,8(sp)
40001be0:	00c12503          	lw	a0,12(sp)
40001be4:	40003637          	lui	a2,0x40003
40001be8:	bec60613          	addi	a2,a2,-1044 # 40002bec <_etext+0x308>
40001bec:	f30fe0ef          	jal	ra,4000031c <hfunit_comp_float>
40001bf0:	03c12083          	lw	ra,60(sp)
40001bf4:	03812403          	lw	s0,56(sp)
40001bf8:	04010113          	addi	sp,sp,64
40001bfc:	00008067          	jalr	zero,0(ra)

40001c00 <cos_89_degree_test>:
40001c00:	fc010113          	addi	sp,sp,-64
40001c04:	400037b7          	lui	a5,0x40003
40001c08:	02812c23          	sw	s0,56(sp)
40001c0c:	be07a403          	lw	s0,-1056(a5) # 40002be0 <_etext+0x2fc>
40001c10:	400037b7          	lui	a5,0x40003
40001c14:	bdc7a783          	lw	a5,-1060(a5) # 40002bdc <_etext+0x2f8>
40001c18:	01010593          	addi	a1,sp,16
40001c1c:	00600613          	addi	a2,zero,6
40001c20:	00040513          	addi	a0,s0,0
40001c24:	02112e23          	sw	ra,60(sp)
40001c28:	00f12423          	sw	a5,8(sp)
40001c2c:	fa5fe0ef          	jal	ra,40000bd0 <ftoa>
40001c30:	40003537          	lui	a0,0x40003
40001c34:	01010613          	addi	a2,sp,16
40001c38:	05900593          	addi	a1,zero,89
40001c3c:	b5850513          	addi	a0,a0,-1192 # 40002b58 <_etext+0x274>
40001c40:	93cff0ef          	jal	ra,40000d7c <printf>
40001c44:	00040513          	addi	a0,s0,0
40001c48:	c89ff0ef          	jal	ra,400018d0 <cos>
40001c4c:	00a12623          	sw	a0,12(sp)
40001c50:	40003537          	lui	a0,0x40003
40001c54:	b7850513          	addi	a0,a0,-1160 # 40002b78 <_etext+0x294>
40001c58:	924ff0ef          	jal	ra,40000d7c <printf>
40001c5c:	00810593          	addi	a1,sp,8
40001c60:	00400513          	addi	a0,zero,4
40001c64:	e24fe0ef          	jal	ra,40000288 <printBits>
40001c68:	40003537          	lui	a0,0x40003
40001c6c:	b7c50513          	addi	a0,a0,-1156 # 40002b7c <_etext+0x298>
40001c70:	90cff0ef          	jal	ra,40000d7c <printf>
40001c74:	00c10593          	addi	a1,sp,12
40001c78:	00400513          	addi	a0,zero,4
40001c7c:	e0cfe0ef          	jal	ra,40000288 <printBits>
40001c80:	00812503          	lw	a0,8(sp)
40001c84:	00600613          	addi	a2,zero,6
40001c88:	01010593          	addi	a1,sp,16
40001c8c:	f45fe0ef          	jal	ra,40000bd0 <ftoa>
40001c90:	40003537          	lui	a0,0x40003
40001c94:	01010593          	addi	a1,sp,16
40001c98:	b8050513          	addi	a0,a0,-1152 # 40002b80 <_etext+0x29c>
40001c9c:	8e0ff0ef          	jal	ra,40000d7c <printf>
40001ca0:	00c12503          	lw	a0,12(sp)
40001ca4:	00600613          	addi	a2,zero,6
40001ca8:	01010593          	addi	a1,sp,16
40001cac:	f25fe0ef          	jal	ra,40000bd0 <ftoa>
40001cb0:	40003537          	lui	a0,0x40003
40001cb4:	01010593          	addi	a1,sp,16
40001cb8:	b9050513          	addi	a0,a0,-1136 # 40002b90 <_etext+0x2ac>
40001cbc:	8c0ff0ef          	jal	ra,40000d7c <printf>
40001cc0:	00812583          	lw	a1,8(sp)
40001cc4:	00c12503          	lw	a0,12(sp)
40001cc8:	40003637          	lui	a2,0x40003
40001ccc:	be460613          	addi	a2,a2,-1052 # 40002be4 <_etext+0x300>
40001cd0:	e4cfe0ef          	jal	ra,4000031c <hfunit_comp_float>
40001cd4:	03c12083          	lw	ra,60(sp)
40001cd8:	03812403          	lw	s0,56(sp)
40001cdc:	04010113          	addi	sp,sp,64
40001ce0:	00008067          	jalr	zero,0(ra)

40001ce4 <cos_91_degree_test>:
40001ce4:	fc010113          	addi	sp,sp,-64
40001ce8:	400037b7          	lui	a5,0x40003
40001cec:	02812c23          	sw	s0,56(sp)
40001cf0:	bf87a403          	lw	s0,-1032(a5) # 40002bf8 <_etext+0x314>
40001cf4:	400037b7          	lui	a5,0x40003
40001cf8:	bf47a783          	lw	a5,-1036(a5) # 40002bf4 <_etext+0x310>
40001cfc:	01010593          	addi	a1,sp,16
40001d00:	00600613          	addi	a2,zero,6
40001d04:	00040513          	addi	a0,s0,0
40001d08:	02112e23          	sw	ra,60(sp)
40001d0c:	00f12423          	sw	a5,8(sp)
40001d10:	ec1fe0ef          	jal	ra,40000bd0 <ftoa>
40001d14:	40003537          	lui	a0,0x40003
40001d18:	01010613          	addi	a2,sp,16
40001d1c:	05b00593          	addi	a1,zero,91
40001d20:	b5850513          	addi	a0,a0,-1192 # 40002b58 <_etext+0x274>
40001d24:	858ff0ef          	jal	ra,40000d7c <printf>
40001d28:	00040513          	addi	a0,s0,0
40001d2c:	ba5ff0ef          	jal	ra,400018d0 <cos>
40001d30:	00a12623          	sw	a0,12(sp)
40001d34:	40003537          	lui	a0,0x40003
40001d38:	b7850513          	addi	a0,a0,-1160 # 40002b78 <_etext+0x294>
40001d3c:	840ff0ef          	jal	ra,40000d7c <printf>
40001d40:	00810593          	addi	a1,sp,8
40001d44:	00400513          	addi	a0,zero,4
40001d48:	d40fe0ef          	jal	ra,40000288 <printBits>
40001d4c:	40003537          	lui	a0,0x40003
40001d50:	b7c50513          	addi	a0,a0,-1156 # 40002b7c <_etext+0x298>
40001d54:	828ff0ef          	jal	ra,40000d7c <printf>
40001d58:	00c10593          	addi	a1,sp,12
40001d5c:	00400513          	addi	a0,zero,4
40001d60:	d28fe0ef          	jal	ra,40000288 <printBits>
40001d64:	00812503          	lw	a0,8(sp)
40001d68:	00600613          	addi	a2,zero,6
40001d6c:	01010593          	addi	a1,sp,16
40001d70:	e61fe0ef          	jal	ra,40000bd0 <ftoa>
40001d74:	40003537          	lui	a0,0x40003
40001d78:	01010593          	addi	a1,sp,16
40001d7c:	b8050513          	addi	a0,a0,-1152 # 40002b80 <_etext+0x29c>
40001d80:	ffdfe0ef          	jal	ra,40000d7c <printf>
40001d84:	00c12503          	lw	a0,12(sp)
40001d88:	00600613          	addi	a2,zero,6
40001d8c:	01010593          	addi	a1,sp,16
40001d90:	e41fe0ef          	jal	ra,40000bd0 <ftoa>
40001d94:	40003537          	lui	a0,0x40003
40001d98:	01010593          	addi	a1,sp,16
40001d9c:	b9050513          	addi	a0,a0,-1136 # 40002b90 <_etext+0x2ac>
40001da0:	fddfe0ef          	jal	ra,40000d7c <printf>
40001da4:	00812583          	lw	a1,8(sp)
40001da8:	00c12503          	lw	a0,12(sp)
40001dac:	40003637          	lui	a2,0x40003
40001db0:	bfc60613          	addi	a2,a2,-1028 # 40002bfc <_etext+0x318>
40001db4:	d68fe0ef          	jal	ra,4000031c <hfunit_comp_float>
40001db8:	03c12083          	lw	ra,60(sp)
40001dbc:	03812403          	lw	s0,56(sp)
40001dc0:	04010113          	addi	sp,sp,64
40001dc4:	00008067          	jalr	zero,0(ra)

40001dc8 <cos_180_degree_test>:
40001dc8:	fc010113          	addi	sp,sp,-64
40001dcc:	400037b7          	lui	a5,0x40003
40001dd0:	02812c23          	sw	s0,56(sp)
40001dd4:	ba87a403          	lw	s0,-1112(a5) # 40002ba8 <_etext+0x2c4>
40001dd8:	400037b7          	lui	a5,0x40003
40001ddc:	ba47a783          	lw	a5,-1116(a5) # 40002ba4 <_etext+0x2c0>
40001de0:	01010593          	addi	a1,sp,16
40001de4:	00600613          	addi	a2,zero,6
40001de8:	00040513          	addi	a0,s0,0
40001dec:	02112e23          	sw	ra,60(sp)
40001df0:	00f12423          	sw	a5,8(sp)
40001df4:	dddfe0ef          	jal	ra,40000bd0 <ftoa>
40001df8:	40003537          	lui	a0,0x40003
40001dfc:	01010613          	addi	a2,sp,16
40001e00:	0b400593          	addi	a1,zero,180
40001e04:	b5850513          	addi	a0,a0,-1192 # 40002b58 <_etext+0x274>
40001e08:	f75fe0ef          	jal	ra,40000d7c <printf>
40001e0c:	00040513          	addi	a0,s0,0
40001e10:	ac1ff0ef          	jal	ra,400018d0 <cos>
40001e14:	00a12623          	sw	a0,12(sp)
40001e18:	40003537          	lui	a0,0x40003
40001e1c:	b7850513          	addi	a0,a0,-1160 # 40002b78 <_etext+0x294>
40001e20:	f5dfe0ef          	jal	ra,40000d7c <printf>
40001e24:	00810593          	addi	a1,sp,8
40001e28:	00400513          	addi	a0,zero,4
40001e2c:	c5cfe0ef          	jal	ra,40000288 <printBits>
40001e30:	40003537          	lui	a0,0x40003
40001e34:	b7c50513          	addi	a0,a0,-1156 # 40002b7c <_etext+0x298>
40001e38:	f45fe0ef          	jal	ra,40000d7c <printf>
40001e3c:	00c10593          	addi	a1,sp,12
40001e40:	00400513          	addi	a0,zero,4
40001e44:	c44fe0ef          	jal	ra,40000288 <printBits>
40001e48:	00812503          	lw	a0,8(sp)
40001e4c:	00600613          	addi	a2,zero,6
40001e50:	01010593          	addi	a1,sp,16
40001e54:	d7dfe0ef          	jal	ra,40000bd0 <ftoa>
40001e58:	40003537          	lui	a0,0x40003
40001e5c:	01010593          	addi	a1,sp,16
40001e60:	b8050513          	addi	a0,a0,-1152 # 40002b80 <_etext+0x29c>
40001e64:	f19fe0ef          	jal	ra,40000d7c <printf>
40001e68:	00c12503          	lw	a0,12(sp)
40001e6c:	00600613          	addi	a2,zero,6
40001e70:	01010593          	addi	a1,sp,16
40001e74:	d5dfe0ef          	jal	ra,40000bd0 <ftoa>
40001e78:	40003537          	lui	a0,0x40003
40001e7c:	01010593          	addi	a1,sp,16
40001e80:	b9050513          	addi	a0,a0,-1136 # 40002b90 <_etext+0x2ac>
40001e84:	ef9fe0ef          	jal	ra,40000d7c <printf>
40001e88:	00812583          	lw	a1,8(sp)
40001e8c:	00c12503          	lw	a0,12(sp)
40001e90:	40003637          	lui	a2,0x40003
40001e94:	bac60613          	addi	a2,a2,-1108 # 40002bac <_etext+0x2c8>
40001e98:	c84fe0ef          	jal	ra,4000031c <hfunit_comp_float>
40001e9c:	03c12083          	lw	ra,60(sp)
40001ea0:	03812403          	lw	s0,56(sp)
40001ea4:	04010113          	addi	sp,sp,64
40001ea8:	00008067          	jalr	zero,0(ra)

40001eac <cos_300_degree_test>:
40001eac:	fc010113          	addi	sp,sp,-64
40001eb0:	400037b7          	lui	a5,0x40003
40001eb4:	02812c23          	sw	s0,56(sp)
40001eb8:	bcc7a403          	lw	s0,-1076(a5) # 40002bcc <_etext+0x2e8>
40001ebc:	400037b7          	lui	a5,0x40003
40001ec0:	bc87a783          	lw	a5,-1080(a5) # 40002bc8 <_etext+0x2e4>
40001ec4:	01010593          	addi	a1,sp,16
40001ec8:	00600613          	addi	a2,zero,6
40001ecc:	00040513          	addi	a0,s0,0
40001ed0:	02112e23          	sw	ra,60(sp)
40001ed4:	00f12423          	sw	a5,8(sp)
40001ed8:	cf9fe0ef          	jal	ra,40000bd0 <ftoa>
40001edc:	40003537          	lui	a0,0x40003
40001ee0:	01010613          	addi	a2,sp,16
40001ee4:	12c00593          	addi	a1,zero,300
40001ee8:	b5850513          	addi	a0,a0,-1192 # 40002b58 <_etext+0x274>
40001eec:	e91fe0ef          	jal	ra,40000d7c <printf>
40001ef0:	00040513          	addi	a0,s0,0
40001ef4:	9ddff0ef          	jal	ra,400018d0 <cos>
40001ef8:	00a12623          	sw	a0,12(sp)
40001efc:	40003537          	lui	a0,0x40003
40001f00:	b7850513          	addi	a0,a0,-1160 # 40002b78 <_etext+0x294>
40001f04:	e79fe0ef          	jal	ra,40000d7c <printf>
40001f08:	00810593          	addi	a1,sp,8
40001f0c:	00400513          	addi	a0,zero,4
40001f10:	b78fe0ef          	jal	ra,40000288 <printBits>
40001f14:	40003537          	lui	a0,0x40003
40001f18:	b7c50513          	addi	a0,a0,-1156 # 40002b7c <_etext+0x298>
40001f1c:	e61fe0ef          	jal	ra,40000d7c <printf>
40001f20:	00c10593          	addi	a1,sp,12
40001f24:	00400513          	addi	a0,zero,4
40001f28:	b60fe0ef          	jal	ra,40000288 <printBits>
40001f2c:	00812503          	lw	a0,8(sp)
40001f30:	00600613          	addi	a2,zero,6
40001f34:	01010593          	addi	a1,sp,16
40001f38:	c99fe0ef          	jal	ra,40000bd0 <ftoa>
40001f3c:	40003537          	lui	a0,0x40003
40001f40:	01010593          	addi	a1,sp,16
40001f44:	b8050513          	addi	a0,a0,-1152 # 40002b80 <_etext+0x29c>
40001f48:	e35fe0ef          	jal	ra,40000d7c <printf>
40001f4c:	00c12503          	lw	a0,12(sp)
40001f50:	00600613          	addi	a2,zero,6
40001f54:	01010593          	addi	a1,sp,16
40001f58:	c79fe0ef          	jal	ra,40000bd0 <ftoa>
40001f5c:	40003537          	lui	a0,0x40003
40001f60:	01010593          	addi	a1,sp,16
40001f64:	b9050513          	addi	a0,a0,-1136 # 40002b90 <_etext+0x2ac>
40001f68:	e15fe0ef          	jal	ra,40000d7c <printf>
40001f6c:	00812583          	lw	a1,8(sp)
40001f70:	00c12503          	lw	a0,12(sp)
40001f74:	40003637          	lui	a2,0x40003
40001f78:	bd060613          	addi	a2,a2,-1072 # 40002bd0 <_etext+0x2ec>
40001f7c:	ba0fe0ef          	jal	ra,4000031c <hfunit_comp_float>
40001f80:	03c12083          	lw	ra,60(sp)
40001f84:	03812403          	lw	s0,56(sp)
40001f88:	04010113          	addi	sp,sp,64
40001f8c:	00008067          	jalr	zero,0(ra)

40001f90 <cos_test2>:
40001f90:	fd010113          	addi	sp,sp,-48
40001f94:	00100513          	addi	a0,zero,1
40001f98:	02112623          	sw	ra,44(sp)
40001f9c:	02812423          	sw	s0,40(sp)
40001fa0:	96dff0ef          	jal	ra,4000190c <atan>
40001fa4:	40003537          	lui	a0,0x40003
40001fa8:	16800593          	addi	a1,zero,360
40001fac:	c7850513          	addi	a0,a0,-904 # 40002c78 <_etext+0x394>
40001fb0:	dcdfe0ef          	jal	ra,40000d7c <printf>
40001fb4:	400037b7          	lui	a5,0x40003
40001fb8:	c747a403          	lw	s0,-908(a5) # 40002c74 <_etext+0x390>
40001fbc:	00600613          	addi	a2,zero,6
40001fc0:	00010593          	addi	a1,sp,0
40001fc4:	00040513          	addi	a0,s0,0
40001fc8:	c09fe0ef          	jal	ra,40000bd0 <ftoa>
40001fcc:	40003537          	lui	a0,0x40003
40001fd0:	00010593          	addi	a1,sp,0
40001fd4:	c9050513          	addi	a0,a0,-880 # 40002c90 <_etext+0x3ac>
40001fd8:	da5fe0ef          	jal	ra,40000d7c <printf>
40001fdc:	00040513          	addi	a0,s0,0
40001fe0:	8f1ff0ef          	jal	ra,400018d0 <cos>
40001fe4:	00600613          	addi	a2,zero,6
40001fe8:	00010593          	addi	a1,sp,0
40001fec:	be5fe0ef          	jal	ra,40000bd0 <ftoa>
40001ff0:	40003537          	lui	a0,0x40003
40001ff4:	00010593          	addi	a1,sp,0
40001ff8:	c9c50513          	addi	a0,a0,-868 # 40002c9c <_etext+0x3b8>
40001ffc:	d81fe0ef          	jal	ra,40000d7c <printf>
40002000:	00040513          	addi	a0,s0,0
40002004:	8cdff0ef          	jal	ra,400018d0 <cos>
40002008:	400037b7          	lui	a5,0x40003
4000200c:	af47a583          	lw	a1,-1292(a5) # 40002af4 <_etext+0x210>
40002010:	40003637          	lui	a2,0x40003
40002014:	ca860613          	addi	a2,a2,-856 # 40002ca8 <_etext+0x3c4>
40002018:	b04fe0ef          	jal	ra,4000031c <hfunit_comp_float>
4000201c:	02c12083          	lw	ra,44(sp)
40002020:	02812403          	lw	s0,40(sp)
40002024:	03010113          	addi	sp,sp,48
40002028:	00008067          	jalr	zero,0(ra)

4000202c <cos_test3>:
4000202c:	fd010113          	addi	sp,sp,-48
40002030:	00100513          	addi	a0,zero,1
40002034:	02112623          	sw	ra,44(sp)
40002038:	02812423          	sw	s0,40(sp)
4000203c:	8d1ff0ef          	jal	ra,4000190c <atan>
40002040:	40003537          	lui	a0,0x40003
40002044:	01e00593          	addi	a1,zero,30
40002048:	c7850513          	addi	a0,a0,-904 # 40002c78 <_etext+0x394>
4000204c:	d31fe0ef          	jal	ra,40000d7c <printf>
40002050:	400037b7          	lui	a5,0x40003
40002054:	cb47a403          	lw	s0,-844(a5) # 40002cb4 <_etext+0x3d0>
40002058:	00040513          	addi	a0,s0,0
4000205c:	875ff0ef          	jal	ra,400018d0 <cos>
40002060:	00600613          	addi	a2,zero,6
40002064:	00010593          	addi	a1,sp,0
40002068:	b69fe0ef          	jal	ra,40000bd0 <ftoa>
4000206c:	40003537          	lui	a0,0x40003
40002070:	00010593          	addi	a1,sp,0
40002074:	c9c50513          	addi	a0,a0,-868 # 40002c9c <_etext+0x3b8>
40002078:	d05fe0ef          	jal	ra,40000d7c <printf>
4000207c:	00040513          	addi	a0,s0,0
40002080:	851ff0ef          	jal	ra,400018d0 <cos>
40002084:	400037b7          	lui	a5,0x40003
40002088:	cb87a583          	lw	a1,-840(a5) # 40002cb8 <_etext+0x3d4>
4000208c:	40003637          	lui	a2,0x40003
40002090:	cbc60613          	addi	a2,a2,-836 # 40002cbc <_etext+0x3d8>
40002094:	a88fe0ef          	jal	ra,4000031c <hfunit_comp_float>
40002098:	02c12083          	lw	ra,44(sp)
4000209c:	02812403          	lw	s0,40(sp)
400020a0:	03010113          	addi	sp,sp,48
400020a4:	00008067          	jalr	zero,0(ra)

400020a8 <cos_test4>:
400020a8:	fd010113          	addi	sp,sp,-48
400020ac:	00100513          	addi	a0,zero,1
400020b0:	02112623          	sw	ra,44(sp)
400020b4:	02812423          	sw	s0,40(sp)
400020b8:	855ff0ef          	jal	ra,4000190c <atan>
400020bc:	40003537          	lui	a0,0x40003
400020c0:	02d00593          	addi	a1,zero,45
400020c4:	c7850513          	addi	a0,a0,-904 # 40002c78 <_etext+0x394>
400020c8:	cb5fe0ef          	jal	ra,40000d7c <printf>
400020cc:	400037b7          	lui	a5,0x40003
400020d0:	cc87a403          	lw	s0,-824(a5) # 40002cc8 <_etext+0x3e4>
400020d4:	00040513          	addi	a0,s0,0
400020d8:	ff8ff0ef          	jal	ra,400018d0 <cos>
400020dc:	00600613          	addi	a2,zero,6
400020e0:	00010593          	addi	a1,sp,0
400020e4:	aedfe0ef          	jal	ra,40000bd0 <ftoa>
400020e8:	40003537          	lui	a0,0x40003
400020ec:	00010593          	addi	a1,sp,0
400020f0:	c9c50513          	addi	a0,a0,-868 # 40002c9c <_etext+0x3b8>
400020f4:	c89fe0ef          	jal	ra,40000d7c <printf>
400020f8:	00040513          	addi	a0,s0,0
400020fc:	fd4ff0ef          	jal	ra,400018d0 <cos>
40002100:	400037b7          	lui	a5,0x40003
40002104:	ccc7a583          	lw	a1,-820(a5) # 40002ccc <_etext+0x3e8>
40002108:	40003637          	lui	a2,0x40003
4000210c:	cd060613          	addi	a2,a2,-816 # 40002cd0 <_etext+0x3ec>
40002110:	a0cfe0ef          	jal	ra,4000031c <hfunit_comp_float>
40002114:	02c12083          	lw	ra,44(sp)
40002118:	02812403          	lw	s0,40(sp)
4000211c:	03010113          	addi	sp,sp,48
40002120:	00008067          	jalr	zero,0(ra)

40002124 <cos_test5>:
40002124:	fd010113          	addi	sp,sp,-48
40002128:	00100513          	addi	a0,zero,1
4000212c:	02112623          	sw	ra,44(sp)
40002130:	02812423          	sw	s0,40(sp)
40002134:	fd8ff0ef          	jal	ra,4000190c <atan>
40002138:	40003537          	lui	a0,0x40003
4000213c:	03c00593          	addi	a1,zero,60
40002140:	c7850513          	addi	a0,a0,-904 # 40002c78 <_etext+0x394>
40002144:	c39fe0ef          	jal	ra,40000d7c <printf>
40002148:	400037b7          	lui	a5,0x40003
4000214c:	cdc7a403          	lw	s0,-804(a5) # 40002cdc <_etext+0x3f8>
40002150:	00040513          	addi	a0,s0,0
40002154:	f7cff0ef          	jal	ra,400018d0 <cos>
40002158:	00600613          	addi	a2,zero,6
4000215c:	00010593          	addi	a1,sp,0
40002160:	a71fe0ef          	jal	ra,40000bd0 <ftoa>
40002164:	40003537          	lui	a0,0x40003
40002168:	00010593          	addi	a1,sp,0
4000216c:	c9c50513          	addi	a0,a0,-868 # 40002c9c <_etext+0x3b8>
40002170:	c0dfe0ef          	jal	ra,40000d7c <printf>
40002174:	00040513          	addi	a0,s0,0
40002178:	f58ff0ef          	jal	ra,400018d0 <cos>
4000217c:	400037b7          	lui	a5,0x40003
40002180:	bc87a583          	lw	a1,-1080(a5) # 40002bc8 <_etext+0x2e4>
40002184:	40003637          	lui	a2,0x40003
40002188:	ce060613          	addi	a2,a2,-800 # 40002ce0 <_etext+0x3fc>
4000218c:	990fe0ef          	jal	ra,4000031c <hfunit_comp_float>
40002190:	02c12083          	lw	ra,44(sp)
40002194:	02812403          	lw	s0,40(sp)
40002198:	03010113          	addi	sp,sp,48
4000219c:	00008067          	jalr	zero,0(ra)

400021a0 <cos_test6>:
400021a0:	fc010113          	addi	sp,sp,-64
400021a4:	00100513          	addi	a0,zero,1
400021a8:	02112e23          	sw	ra,60(sp)
400021ac:	02812c23          	sw	s0,56(sp)
400021b0:	f5cff0ef          	jal	ra,4000190c <atan>
400021b4:	400037b7          	lui	a5,0x40003
400021b8:	cec7a403          	lw	s0,-788(a5) # 40002cec <_etext+0x408>
400021bc:	400037b7          	lui	a5,0x40003
400021c0:	af47a783          	lw	a5,-1292(a5) # 40002af4 <_etext+0x210>
400021c4:	00040513          	addi	a0,s0,0
400021c8:	00f12423          	sw	a5,8(sp)
400021cc:	f04ff0ef          	jal	ra,400018d0 <cos>
400021d0:	00a12623          	sw	a0,12(sp)
400021d4:	40003537          	lui	a0,0x40003
400021d8:	2d000593          	addi	a1,zero,720
400021dc:	c7850513          	addi	a0,a0,-904 # 40002c78 <_etext+0x394>
400021e0:	b9dfe0ef          	jal	ra,40000d7c <printf>
400021e4:	00040513          	addi	a0,s0,0
400021e8:	ee8ff0ef          	jal	ra,400018d0 <cos>
400021ec:	00600613          	addi	a2,zero,6
400021f0:	01010593          	addi	a1,sp,16
400021f4:	9ddfe0ef          	jal	ra,40000bd0 <ftoa>
400021f8:	40003537          	lui	a0,0x40003
400021fc:	b7850513          	addi	a0,a0,-1160 # 40002b78 <_etext+0x294>
40002200:	b7dfe0ef          	jal	ra,40000d7c <printf>
40002204:	00c10593          	addi	a1,sp,12
40002208:	00400513          	addi	a0,zero,4
4000220c:	87cfe0ef          	jal	ra,40000288 <printBits>
40002210:	40003537          	lui	a0,0x40003
40002214:	b7c50513          	addi	a0,a0,-1156 # 40002b7c <_etext+0x298>
40002218:	b65fe0ef          	jal	ra,40000d7c <printf>
4000221c:	00810593          	addi	a1,sp,8
40002220:	00400513          	addi	a0,zero,4
40002224:	864fe0ef          	jal	ra,40000288 <printBits>
40002228:	40003537          	lui	a0,0x40003
4000222c:	01010593          	addi	a1,sp,16
40002230:	c9c50513          	addi	a0,a0,-868 # 40002c9c <_etext+0x3b8>
40002234:	b49fe0ef          	jal	ra,40000d7c <printf>
40002238:	00040513          	addi	a0,s0,0
4000223c:	e94ff0ef          	jal	ra,400018d0 <cos>
40002240:	00812583          	lw	a1,8(sp)
40002244:	40003637          	lui	a2,0x40003
40002248:	cf060613          	addi	a2,a2,-784 # 40002cf0 <_etext+0x40c>
4000224c:	8d0fe0ef          	jal	ra,4000031c <hfunit_comp_float>
40002250:	03c12083          	lw	ra,60(sp)
40002254:	03812403          	lw	s0,56(sp)
40002258:	04010113          	addi	sp,sp,64
4000225c:	00008067          	jalr	zero,0(ra)

40002260 <cos_test7>:
40002260:	fc010113          	addi	sp,sp,-64
40002264:	00100513          	addi	a0,zero,1
40002268:	02112e23          	sw	ra,60(sp)
4000226c:	02812c23          	sw	s0,56(sp)
40002270:	e9cff0ef          	jal	ra,4000190c <atan>
40002274:	400037b7          	lui	a5,0x40003
40002278:	d007a403          	lw	s0,-768(a5) # 40002d00 <_etext+0x41c>
4000227c:	400037b7          	lui	a5,0x40003
40002280:	cfc7a783          	lw	a5,-772(a5) # 40002cfc <_etext+0x418>
40002284:	00040513          	addi	a0,s0,0
40002288:	00f12423          	sw	a5,8(sp)
4000228c:	e44ff0ef          	jal	ra,400018d0 <cos>
40002290:	00a12623          	sw	a0,12(sp)
40002294:	40003537          	lui	a0,0x40003
40002298:	07800593          	addi	a1,zero,120
4000229c:	c7850513          	addi	a0,a0,-904 # 40002c78 <_etext+0x394>
400022a0:	addfe0ef          	jal	ra,40000d7c <printf>
400022a4:	00040513          	addi	a0,s0,0
400022a8:	e28ff0ef          	jal	ra,400018d0 <cos>
400022ac:	00600613          	addi	a2,zero,6
400022b0:	01010593          	addi	a1,sp,16
400022b4:	91dfe0ef          	jal	ra,40000bd0 <ftoa>
400022b8:	40003537          	lui	a0,0x40003
400022bc:	b7850513          	addi	a0,a0,-1160 # 40002b78 <_etext+0x294>
400022c0:	abdfe0ef          	jal	ra,40000d7c <printf>
400022c4:	00c10593          	addi	a1,sp,12
400022c8:	00400513          	addi	a0,zero,4
400022cc:	fbdfd0ef          	jal	ra,40000288 <printBits>
400022d0:	40003537          	lui	a0,0x40003
400022d4:	b7c50513          	addi	a0,a0,-1156 # 40002b7c <_etext+0x298>
400022d8:	aa5fe0ef          	jal	ra,40000d7c <printf>
400022dc:	00810593          	addi	a1,sp,8
400022e0:	00400513          	addi	a0,zero,4
400022e4:	fa5fd0ef          	jal	ra,40000288 <printBits>
400022e8:	40003537          	lui	a0,0x40003
400022ec:	01010593          	addi	a1,sp,16
400022f0:	c9c50513          	addi	a0,a0,-868 # 40002c9c <_etext+0x3b8>
400022f4:	a89fe0ef          	jal	ra,40000d7c <printf>
400022f8:	00040513          	addi	a0,s0,0
400022fc:	dd4ff0ef          	jal	ra,400018d0 <cos>
40002300:	00812583          	lw	a1,8(sp)
40002304:	40003637          	lui	a2,0x40003
40002308:	d0460613          	addi	a2,a2,-764 # 40002d04 <_etext+0x420>
4000230c:	810fe0ef          	jal	ra,4000031c <hfunit_comp_float>
40002310:	03c12083          	lw	ra,60(sp)
40002314:	03812403          	lw	s0,56(sp)
40002318:	04010113          	addi	sp,sp,64
4000231c:	00008067          	jalr	zero,0(ra)

40002320 <cos_test8>:
40002320:	fd010113          	addi	sp,sp,-48
40002324:	00100513          	addi	a0,zero,1
40002328:	02112623          	sw	ra,44(sp)
4000232c:	02812423          	sw	s0,40(sp)
40002330:	ddcff0ef          	jal	ra,4000190c <atan>
40002334:	40003537          	lui	a0,0x40003
40002338:	08700593          	addi	a1,zero,135
4000233c:	c7850513          	addi	a0,a0,-904 # 40002c78 <_etext+0x394>
40002340:	a3dfe0ef          	jal	ra,40000d7c <printf>
40002344:	400037b7          	lui	a5,0x40003
40002348:	d107a403          	lw	s0,-752(a5) # 40002d10 <_etext+0x42c>
4000234c:	00040513          	addi	a0,s0,0
40002350:	d80ff0ef          	jal	ra,400018d0 <cos>
40002354:	00600613          	addi	a2,zero,6
40002358:	00010593          	addi	a1,sp,0
4000235c:	875fe0ef          	jal	ra,40000bd0 <ftoa>
40002360:	40003537          	lui	a0,0x40003
40002364:	00010593          	addi	a1,sp,0
40002368:	c9c50513          	addi	a0,a0,-868 # 40002c9c <_etext+0x3b8>
4000236c:	a11fe0ef          	jal	ra,40000d7c <printf>
40002370:	00040513          	addi	a0,s0,0
40002374:	d5cff0ef          	jal	ra,400018d0 <cos>
40002378:	400037b7          	lui	a5,0x40003
4000237c:	d147a583          	lw	a1,-748(a5) # 40002d14 <_etext+0x430>
40002380:	40003637          	lui	a2,0x40003
40002384:	d1860613          	addi	a2,a2,-744 # 40002d18 <_etext+0x434>
40002388:	f95fd0ef          	jal	ra,4000031c <hfunit_comp_float>
4000238c:	02c12083          	lw	ra,44(sp)
40002390:	02812403          	lw	s0,40(sp)
40002394:	03010113          	addi	sp,sp,48
40002398:	00008067          	jalr	zero,0(ra)

4000239c <cos_test9>:
4000239c:	fd010113          	addi	sp,sp,-48
400023a0:	00100513          	addi	a0,zero,1
400023a4:	02112623          	sw	ra,44(sp)
400023a8:	02812423          	sw	s0,40(sp)
400023ac:	d60ff0ef          	jal	ra,4000190c <atan>
400023b0:	40003537          	lui	a0,0x40003
400023b4:	09600593          	addi	a1,zero,150
400023b8:	c7850513          	addi	a0,a0,-904 # 40002c78 <_etext+0x394>
400023bc:	9c1fe0ef          	jal	ra,40000d7c <printf>
400023c0:	400037b7          	lui	a5,0x40003
400023c4:	d247a403          	lw	s0,-732(a5) # 40002d24 <_etext+0x440>
400023c8:	00040513          	addi	a0,s0,0
400023cc:	d04ff0ef          	jal	ra,400018d0 <cos>
400023d0:	00600613          	addi	a2,zero,6
400023d4:	00010593          	addi	a1,sp,0
400023d8:	ff8fe0ef          	jal	ra,40000bd0 <ftoa>
400023dc:	40003537          	lui	a0,0x40003
400023e0:	00010593          	addi	a1,sp,0
400023e4:	c9c50513          	addi	a0,a0,-868 # 40002c9c <_etext+0x3b8>
400023e8:	995fe0ef          	jal	ra,40000d7c <printf>
400023ec:	00040513          	addi	a0,s0,0
400023f0:	ce0ff0ef          	jal	ra,400018d0 <cos>
400023f4:	400037b7          	lui	a5,0x40003
400023f8:	d287a583          	lw	a1,-728(a5) # 40002d28 <_etext+0x444>
400023fc:	40003637          	lui	a2,0x40003
40002400:	d2c60613          	addi	a2,a2,-724 # 40002d2c <_etext+0x448>
40002404:	f19fd0ef          	jal	ra,4000031c <hfunit_comp_float>
40002408:	02c12083          	lw	ra,44(sp)
4000240c:	02812403          	lw	s0,40(sp)
40002410:	03010113          	addi	sp,sp,48
40002414:	00008067          	jalr	zero,0(ra)

40002418 <cos_test11>:
40002418:	fd010113          	addi	sp,sp,-48
4000241c:	00100513          	addi	a0,zero,1
40002420:	02112623          	sw	ra,44(sp)
40002424:	02812423          	sw	s0,40(sp)
40002428:	ce4ff0ef          	jal	ra,4000190c <atan>
4000242c:	40003537          	lui	a0,0x40003
40002430:	0d200593          	addi	a1,zero,210
40002434:	c7850513          	addi	a0,a0,-904 # 40002c78 <_etext+0x394>
40002438:	945fe0ef          	jal	ra,40000d7c <printf>
4000243c:	400037b7          	lui	a5,0x40003
40002440:	c047a403          	lw	s0,-1020(a5) # 40002c04 <_etext+0x320>
40002444:	00040513          	addi	a0,s0,0
40002448:	c88ff0ef          	jal	ra,400018d0 <cos>
4000244c:	00600613          	addi	a2,zero,6
40002450:	00010593          	addi	a1,sp,0
40002454:	f7cfe0ef          	jal	ra,40000bd0 <ftoa>
40002458:	40003537          	lui	a0,0x40003
4000245c:	00010593          	addi	a1,sp,0
40002460:	c9c50513          	addi	a0,a0,-868 # 40002c9c <_etext+0x3b8>
40002464:	919fe0ef          	jal	ra,40000d7c <printf>
40002468:	00040513          	addi	a0,s0,0
4000246c:	c64ff0ef          	jal	ra,400018d0 <cos>
40002470:	400037b7          	lui	a5,0x40003
40002474:	d287a583          	lw	a1,-728(a5) # 40002d28 <_etext+0x444>
40002478:	40003637          	lui	a2,0x40003
4000247c:	c0860613          	addi	a2,a2,-1016 # 40002c08 <_etext+0x324>
40002480:	e9dfd0ef          	jal	ra,4000031c <hfunit_comp_float>
40002484:	02c12083          	lw	ra,44(sp)
40002488:	02812403          	lw	s0,40(sp)
4000248c:	03010113          	addi	sp,sp,48
40002490:	00008067          	jalr	zero,0(ra)

40002494 <cos_test12>:
40002494:	fd010113          	addi	sp,sp,-48
40002498:	00100513          	addi	a0,zero,1
4000249c:	02112623          	sw	ra,44(sp)
400024a0:	02812423          	sw	s0,40(sp)
400024a4:	c68ff0ef          	jal	ra,4000190c <atan>
400024a8:	40003537          	lui	a0,0x40003
400024ac:	0e100593          	addi	a1,zero,225
400024b0:	c7850513          	addi	a0,a0,-904 # 40002c78 <_etext+0x394>
400024b4:	8c9fe0ef          	jal	ra,40000d7c <printf>
400024b8:	400037b7          	lui	a5,0x40003
400024bc:	c147a403          	lw	s0,-1004(a5) # 40002c14 <_etext+0x330>
400024c0:	00040513          	addi	a0,s0,0
400024c4:	c0cff0ef          	jal	ra,400018d0 <cos>
400024c8:	00600613          	addi	a2,zero,6
400024cc:	00010593          	addi	a1,sp,0
400024d0:	f00fe0ef          	jal	ra,40000bd0 <ftoa>
400024d4:	40003537          	lui	a0,0x40003
400024d8:	00010593          	addi	a1,sp,0
400024dc:	c9c50513          	addi	a0,a0,-868 # 40002c9c <_etext+0x3b8>
400024e0:	89dfe0ef          	jal	ra,40000d7c <printf>
400024e4:	00040513          	addi	a0,s0,0
400024e8:	be8ff0ef          	jal	ra,400018d0 <cos>
400024ec:	400037b7          	lui	a5,0x40003
400024f0:	d147a583          	lw	a1,-748(a5) # 40002d14 <_etext+0x430>
400024f4:	40003637          	lui	a2,0x40003
400024f8:	c1860613          	addi	a2,a2,-1000 # 40002c18 <_etext+0x334>
400024fc:	e21fd0ef          	jal	ra,4000031c <hfunit_comp_float>
40002500:	02c12083          	lw	ra,44(sp)
40002504:	02812403          	lw	s0,40(sp)
40002508:	03010113          	addi	sp,sp,48
4000250c:	00008067          	jalr	zero,0(ra)

40002510 <cos_test13>:
40002510:	fc010113          	addi	sp,sp,-64
40002514:	00100513          	addi	a0,zero,1
40002518:	02112e23          	sw	ra,60(sp)
4000251c:	02812c23          	sw	s0,56(sp)
40002520:	becff0ef          	jal	ra,4000190c <atan>
40002524:	400037b7          	lui	a5,0x40003
40002528:	c247a403          	lw	s0,-988(a5) # 40002c24 <_etext+0x340>
4000252c:	400037b7          	lui	a5,0x40003
40002530:	cfc7a783          	lw	a5,-772(a5) # 40002cfc <_etext+0x418>
40002534:	00040513          	addi	a0,s0,0
40002538:	00f12623          	sw	a5,12(sp)
4000253c:	b94ff0ef          	jal	ra,400018d0 <cos>
40002540:	00a12423          	sw	a0,8(sp)
40002544:	40003537          	lui	a0,0x40003
40002548:	0f000593          	addi	a1,zero,240
4000254c:	c7850513          	addi	a0,a0,-904 # 40002c78 <_etext+0x394>
40002550:	82dfe0ef          	jal	ra,40000d7c <printf>
40002554:	40003537          	lui	a0,0x40003
40002558:	b7850513          	addi	a0,a0,-1160 # 40002b78 <_etext+0x294>
4000255c:	821fe0ef          	jal	ra,40000d7c <printf>
40002560:	00810593          	addi	a1,sp,8
40002564:	00400513          	addi	a0,zero,4
40002568:	d21fd0ef          	jal	ra,40000288 <printBits>
4000256c:	40003537          	lui	a0,0x40003
40002570:	b7c50513          	addi	a0,a0,-1156 # 40002b7c <_etext+0x298>
40002574:	809fe0ef          	jal	ra,40000d7c <printf>
40002578:	00c10593          	addi	a1,sp,12
4000257c:	00400513          	addi	a0,zero,4
40002580:	d09fd0ef          	jal	ra,40000288 <printBits>
40002584:	00040513          	addi	a0,s0,0
40002588:	b48ff0ef          	jal	ra,400018d0 <cos>
4000258c:	00600613          	addi	a2,zero,6
40002590:	01010593          	addi	a1,sp,16
40002594:	e3cfe0ef          	jal	ra,40000bd0 <ftoa>
40002598:	40003537          	lui	a0,0x40003
4000259c:	01010593          	addi	a1,sp,16
400025a0:	c9c50513          	addi	a0,a0,-868 # 40002c9c <_etext+0x3b8>
400025a4:	fd8fe0ef          	jal	ra,40000d7c <printf>
400025a8:	00040513          	addi	a0,s0,0
400025ac:	b24ff0ef          	jal	ra,400018d0 <cos>
400025b0:	00c12583          	lw	a1,12(sp)
400025b4:	40003637          	lui	a2,0x40003
400025b8:	c2860613          	addi	a2,a2,-984 # 40002c28 <_etext+0x344>
400025bc:	d61fd0ef          	jal	ra,4000031c <hfunit_comp_float>
400025c0:	03c12083          	lw	ra,60(sp)
400025c4:	03812403          	lw	s0,56(sp)
400025c8:	04010113          	addi	sp,sp,64
400025cc:	00008067          	jalr	zero,0(ra)

400025d0 <cos_test14>:
400025d0:	fd010113          	addi	sp,sp,-48
400025d4:	00100513          	addi	a0,zero,1
400025d8:	02112623          	sw	ra,44(sp)
400025dc:	02812423          	sw	s0,40(sp)
400025e0:	b2cff0ef          	jal	ra,4000190c <atan>
400025e4:	40003537          	lui	a0,0x40003
400025e8:	10e00593          	addi	a1,zero,270
400025ec:	c7850513          	addi	a0,a0,-904 # 40002c78 <_etext+0x394>
400025f0:	f8cfe0ef          	jal	ra,40000d7c <printf>
400025f4:	400037b7          	lui	a5,0x40003
400025f8:	c347a403          	lw	s0,-972(a5) # 40002c34 <_etext+0x350>
400025fc:	00040513          	addi	a0,s0,0
40002600:	ad0ff0ef          	jal	ra,400018d0 <cos>
40002604:	00600613          	addi	a2,zero,6
40002608:	00010593          	addi	a1,sp,0
4000260c:	dc4fe0ef          	jal	ra,40000bd0 <ftoa>
40002610:	40003537          	lui	a0,0x40003
40002614:	00010593          	addi	a1,sp,0
40002618:	c9c50513          	addi	a0,a0,-868 # 40002c9c <_etext+0x3b8>
4000261c:	f60fe0ef          	jal	ra,40000d7c <printf>
40002620:	00040513          	addi	a0,s0,0
40002624:	aacff0ef          	jal	ra,400018d0 <cos>
40002628:	40003637          	lui	a2,0x40003
4000262c:	c3860613          	addi	a2,a2,-968 # 40002c38 <_etext+0x354>
40002630:	00000593          	addi	a1,zero,0
40002634:	ce9fd0ef          	jal	ra,4000031c <hfunit_comp_float>
40002638:	02c12083          	lw	ra,44(sp)
4000263c:	02812403          	lw	s0,40(sp)
40002640:	03010113          	addi	sp,sp,48
40002644:	00008067          	jalr	zero,0(ra)

40002648 <cos_test15>:
40002648:	fd010113          	addi	sp,sp,-48
4000264c:	00100513          	addi	a0,zero,1
40002650:	02112623          	sw	ra,44(sp)
40002654:	02812423          	sw	s0,40(sp)
40002658:	ab4ff0ef          	jal	ra,4000190c <atan>
4000265c:	40003537          	lui	a0,0x40003
40002660:	12c00593          	addi	a1,zero,300
40002664:	c7850513          	addi	a0,a0,-904 # 40002c78 <_etext+0x394>
40002668:	f14fe0ef          	jal	ra,40000d7c <printf>
4000266c:	400037b7          	lui	a5,0x40003
40002670:	c447a403          	lw	s0,-956(a5) # 40002c44 <_etext+0x360>
40002674:	00600613          	addi	a2,zero,6
40002678:	00010593          	addi	a1,sp,0
4000267c:	00040513          	addi	a0,s0,0
40002680:	d50fe0ef          	jal	ra,40000bd0 <ftoa>
40002684:	40003537          	lui	a0,0x40003
40002688:	00010593          	addi	a1,sp,0
4000268c:	c9050513          	addi	a0,a0,-880 # 40002c90 <_etext+0x3ac>
40002690:	eecfe0ef          	jal	ra,40000d7c <printf>
40002694:	00040513          	addi	a0,s0,0
40002698:	a38ff0ef          	jal	ra,400018d0 <cos>
4000269c:	00600613          	addi	a2,zero,6
400026a0:	00010593          	addi	a1,sp,0
400026a4:	d2cfe0ef          	jal	ra,40000bd0 <ftoa>
400026a8:	40003537          	lui	a0,0x40003
400026ac:	00010593          	addi	a1,sp,0
400026b0:	c9c50513          	addi	a0,a0,-868 # 40002c9c <_etext+0x3b8>
400026b4:	ec8fe0ef          	jal	ra,40000d7c <printf>
400026b8:	00040513          	addi	a0,s0,0
400026bc:	a14ff0ef          	jal	ra,400018d0 <cos>
400026c0:	40003637          	lui	a2,0x40003
400026c4:	c4860613          	addi	a2,a2,-952 # 40002c48 <_etext+0x364>
400026c8:	00000593          	addi	a1,zero,0
400026cc:	c51fd0ef          	jal	ra,4000031c <hfunit_comp_float>
400026d0:	02c12083          	lw	ra,44(sp)
400026d4:	02812403          	lw	s0,40(sp)
400026d8:	03010113          	addi	sp,sp,48
400026dc:	00008067          	jalr	zero,0(ra)

400026e0 <cos_test16>:
400026e0:	fd010113          	addi	sp,sp,-48
400026e4:	00100513          	addi	a0,zero,1
400026e8:	02112623          	sw	ra,44(sp)
400026ec:	02812423          	sw	s0,40(sp)
400026f0:	a1cff0ef          	jal	ra,4000190c <atan>
400026f4:	40003537          	lui	a0,0x40003
400026f8:	13b00593          	addi	a1,zero,315
400026fc:	c7850513          	addi	a0,a0,-904 # 40002c78 <_etext+0x394>
40002700:	e7cfe0ef          	jal	ra,40000d7c <printf>
40002704:	400037b7          	lui	a5,0x40003
40002708:	c547a403          	lw	s0,-940(a5) # 40002c54 <_etext+0x370>
4000270c:	00040513          	addi	a0,s0,0
40002710:	9c0ff0ef          	jal	ra,400018d0 <cos>
40002714:	00600613          	addi	a2,zero,6
40002718:	00010593          	addi	a1,sp,0
4000271c:	cb4fe0ef          	jal	ra,40000bd0 <ftoa>
40002720:	40003537          	lui	a0,0x40003
40002724:	00010593          	addi	a1,sp,0
40002728:	c9c50513          	addi	a0,a0,-868 # 40002c9c <_etext+0x3b8>
4000272c:	e50fe0ef          	jal	ra,40000d7c <printf>
40002730:	00040513          	addi	a0,s0,0
40002734:	99cff0ef          	jal	ra,400018d0 <cos>
40002738:	400037b7          	lui	a5,0x40003
4000273c:	ccc7a583          	lw	a1,-820(a5) # 40002ccc <_etext+0x3e8>
40002740:	40003637          	lui	a2,0x40003
40002744:	c5860613          	addi	a2,a2,-936 # 40002c58 <_etext+0x374>
40002748:	bd5fd0ef          	jal	ra,4000031c <hfunit_comp_float>
4000274c:	02c12083          	lw	ra,44(sp)
40002750:	02812403          	lw	s0,40(sp)
40002754:	03010113          	addi	sp,sp,48
40002758:	00008067          	jalr	zero,0(ra)

4000275c <cos_test17>:
4000275c:	fd010113          	addi	sp,sp,-48
40002760:	00100513          	addi	a0,zero,1
40002764:	02112623          	sw	ra,44(sp)
40002768:	02812423          	sw	s0,40(sp)
4000276c:	9a0ff0ef          	jal	ra,4000190c <atan>
40002770:	40003537          	lui	a0,0x40003
40002774:	14a00593          	addi	a1,zero,330
40002778:	c7850513          	addi	a0,a0,-904 # 40002c78 <_etext+0x394>
4000277c:	e00fe0ef          	jal	ra,40000d7c <printf>
40002780:	400037b7          	lui	a5,0x40003
40002784:	c647a403          	lw	s0,-924(a5) # 40002c64 <_etext+0x380>
40002788:	00040513          	addi	a0,s0,0
4000278c:	944ff0ef          	jal	ra,400018d0 <cos>
40002790:	00600613          	addi	a2,zero,6
40002794:	00010593          	addi	a1,sp,0
40002798:	c38fe0ef          	jal	ra,40000bd0 <ftoa>
4000279c:	40003537          	lui	a0,0x40003
400027a0:	00010593          	addi	a1,sp,0
400027a4:	c9c50513          	addi	a0,a0,-868 # 40002c9c <_etext+0x3b8>
400027a8:	dd4fe0ef          	jal	ra,40000d7c <printf>
400027ac:	00040513          	addi	a0,s0,0
400027b0:	920ff0ef          	jal	ra,400018d0 <cos>
400027b4:	400037b7          	lui	a5,0x40003
400027b8:	cb87a583          	lw	a1,-840(a5) # 40002cb8 <_etext+0x3d4>
400027bc:	40003637          	lui	a2,0x40003
400027c0:	c6860613          	addi	a2,a2,-920 # 40002c68 <_etext+0x384>
400027c4:	b59fd0ef          	jal	ra,4000031c <hfunit_comp_float>
400027c8:	02c12083          	lw	ra,44(sp)
400027cc:	02812403          	lw	s0,40(sp)
400027d0:	03010113          	addi	sp,sp,48
400027d4:	00008067          	jalr	zero,0(ra)

400027d8 <hfunit_run_tests>:
400027d8:	ff010113          	addi	sp,sp,-16
400027dc:	00112623          	sw	ra,12(sp)
400027e0:	988ff0ef          	jal	ra,40001968 <cos_0_degree_test>
400027e4:	a58ff0ef          	jal	ra,40001a3c <cos_1_degree_test>
400027e8:	b38ff0ef          	jal	ra,40001b20 <cos_90_degree_test>
400027ec:	c14ff0ef          	jal	ra,40001c00 <cos_89_degree_test>
400027f0:	cf4ff0ef          	jal	ra,40001ce4 <cos_91_degree_test>
400027f4:	dd4ff0ef          	jal	ra,40001dc8 <cos_180_degree_test>
400027f8:	eb4ff0ef          	jal	ra,40001eac <cos_300_degree_test>
400027fc:	f94ff0ef          	jal	ra,40001f90 <cos_test2>
40002800:	82dff0ef          	jal	ra,4000202c <cos_test3>
40002804:	8a5ff0ef          	jal	ra,400020a8 <cos_test4>
40002808:	91dff0ef          	jal	ra,40002124 <cos_test5>
4000280c:	995ff0ef          	jal	ra,400021a0 <cos_test6>
40002810:	a51ff0ef          	jal	ra,40002260 <cos_test7>
40002814:	b0dff0ef          	jal	ra,40002320 <cos_test8>
40002818:	b85ff0ef          	jal	ra,4000239c <cos_test9>
4000281c:	bfdff0ef          	jal	ra,40002418 <cos_test11>
40002820:	c75ff0ef          	jal	ra,40002494 <cos_test12>
40002824:	cedff0ef          	jal	ra,40002510 <cos_test13>
40002828:	da9ff0ef          	jal	ra,400025d0 <cos_test14>
4000282c:	e1dff0ef          	jal	ra,40002648 <cos_test15>
40002830:	eb1ff0ef          	jal	ra,400026e0 <cos_test16>
40002834:	00c12083          	lw	ra,12(sp)
40002838:	01010113          	addi	sp,sp,16
4000283c:	f21ff06f          	jal	zero,4000275c <cos_test17>

40002840 <main_test>:
40002840:	ff010113          	addi	sp,sp,-16
40002844:	00912223          	sw	s1,4(sp)
40002848:	400034b7          	lui	s1,0x40003
4000284c:	d3848513          	addi	a0,s1,-712 # 40002d38 <_etext+0x454>
40002850:	00112623          	sw	ra,12(sp)
40002854:	00812423          	sw	s0,8(sp)
40002858:	d24fe0ef          	jal	ra,40000d7c <printf>
4000285c:	f7dff0ef          	jal	ra,400027d8 <hfunit_run_tests>
40002860:	d3848513          	addi	a0,s1,-712
40002864:	d18fe0ef          	jal	ra,40000d7c <printf>
40002868:	40003437          	lui	s0,0x40003
4000286c:	400037b7          	lui	a5,0x40003
40002870:	e1440413          	addi	s0,s0,-492 # 40002e14 <failed_tests>
40002874:	00042603          	lw	a2,0(s0)
40002878:	e107a583          	lw	a1,-496(a5) # 40002e10 <_edata>
4000287c:	40003537          	lui	a0,0x40003
40002880:	d5050513          	addi	a0,a0,-688 # 40002d50 <_etext+0x46c>
40002884:	cf8fe0ef          	jal	ra,40000d7c <printf>
40002888:	d3848513          	addi	a0,s1,-712
4000288c:	cf0fe0ef          	jal	ra,40000d7c <printf>
40002890:	00042403          	lw	s0,0(s0)
40002894:	02040663          	beq	s0,zero,400028c0 <main_test+0x80>
40002898:	40003537          	lui	a0,0x40003
4000289c:	d7850513          	addi	a0,a0,-648 # 40002d78 <_etext+0x494>
400028a0:	cdcfe0ef          	jal	ra,40000d7c <printf>
400028a4:	00100413          	addi	s0,zero,1
400028a8:	00040513          	addi	a0,s0,0
400028ac:	00c12083          	lw	ra,12(sp)
400028b0:	00812403          	lw	s0,8(sp)
400028b4:	00412483          	lw	s1,4(sp)
400028b8:	01010113          	addi	sp,sp,16
400028bc:	00008067          	jalr	zero,0(ra)
400028c0:	40003537          	lui	a0,0x40003
400028c4:	d8c50513          	addi	a0,a0,-628 # 40002d8c <_etext+0x4a8>
400028c8:	cb4fe0ef          	jal	ra,40000d7c <printf>
400028cc:	00040513          	addi	a0,s0,0
400028d0:	00c12083          	lw	ra,12(sp)
400028d4:	00812403          	lw	s0,8(sp)
400028d8:	00412483          	lw	s1,4(sp)
400028dc:	01010113          	addi	sp,sp,16
400028e0:	00008067          	jalr	zero,0(ra)
